(dp0
VHitachi\u014dta
p1
cnumpy.core.multiarray
scalar
p2
(cnumpy
dtype
p3
(S'i4'
p4
I0
I1
tp5
Rp6
(I3
S'<'
p7
NNNI-1
I-1
I0
tp8
bS'\x00\x00\x00\x00'
p9
tp10
Rp11
sV
p12
g2
(g6
S'\x08\x00\x00\x00'
p13
tp14
Rp15
sVHigashiusuki
p16
g2
(g6
S'\x07\x00\x00\x00'
p17
tp18
Rp19
sVOg\u014dri
p20
g2
(g6
S'\x12\x00\x00\x00'
p21
tp22
Rp23
sVHirado
p24
g2
(g6
S'\x0c\x00\x00\x00'
p25
tp26
Rp27
sVIzena
p28
g2
(g6
S'\x04\x00\x00\x00'
p29
tp30
Rp31
sVMeit\u014d
p32
g2
(g6
S'\x01\x00\x00\x00'
p33
tp34
Rp35
sVYabu
p36
g2
(g6
S'\x03\x00\x00\x00'
p37
tp38
Rp39
sVT\u014dgane
p40
g2
(g6
S'\r\x00\x00\x00'
p41
tp42
Rp43
sVKomono
p44
g2
(g6
S'\x02\x00\x00\x00'
p45
tp46
Rp47
sVSumida
p48
g2
(g6
S'\x01\x00\x00\x00'
p49
tp50
Rp51
sVFukagawa
p52
g2
(g6
S'\x01\x00\x00\x00'
p53
tp54
Rp55
sVKamiminochi
p56
g2
(g6
S'\x11\x00\x00\x00'
p57
tp58
Rp59
sV\u014cmachi
p60
g2
(g6
S'\x10\x00\x00\x00'
p61
tp62
Rp63
sVK\u014dra
p64
g2
(g6
S'\x11\x00\x00\x00'
p65
tp66
Rp67
sVToyokoro
p68
g2
(g6
S'\t\x00\x00\x00'
p69
tp70
Rp71
sVNishiokitama
p72
g2
(g6
S'\x02\x00\x00\x00'
p73
tp74
Rp75
sVK\u014dri
p76
g2
(g6
S'\t\x00\x00\x00'
p77
tp78
Rp79
sVHikone
p80
g2
(g6
S'\x05\x00\x00\x00'
p81
tp82
Rp83
sVShizuoka
p84
g2
(g6
S'\x06\x00\x00\x00'
p85
tp86
Rp87
sVTome
p88
g2
(g6
S'\x00\x00\x00\x00'
p89
tp90
Rp91
sVShing\u014d
p92
g2
(g6
S'\x12\x00\x00\x00'
p93
tp94
Rp95
sVChikuma
p96
g2
(g6
S'\x00\x00\x00\x00'
p97
tp98
Rp99
sVSaitama
p100
g2
(g6
S'\x0f\x00\x00\x00'
p101
tp102
Rp103
sVSanda
p104
g2
(g6
S'\t\x00\x00\x00'
p105
tp106
Rp107
sVMinamichita
p108
g2
(g6
S'\x13\x00\x00\x00'
p109
tp110
Rp111
sVHigashiyodogawa
p112
g2
(g6
S'\x00\x00\x00\x00'
p113
tp114
Rp115
sVShing\u016b
p116
g2
(g6
S'\x0e\x00\x00\x00'
p117
tp118
Rp119
sVShimohei
p120
g2
(g6
S'\x00\x00\x00\x00'
p121
tp122
Rp123
sVIgu
p124
g2
(g6
S'\t\x00\x00\x00'
p125
tp126
Rp127
sVShiki
p128
g2
(g6
S'\x07\x00\x00\x00'
p129
tp130
Rp131
sVShika
p132
g2
(g6
S'\x06\x00\x00\x00'
p133
tp134
Rp135
sVYasuda
p136
g2
(g6
S'\x13\x00\x00\x00'
p137
tp138
Rp139
sVIga
p140
g2
(g6
S'\r\x00\x00\x00'
p141
tp142
Rp143
sVUrakawa
p144
g2
(g6
S'\x01\x00\x00\x00'
p145
tp146
Rp147
sVSukumo
p148
g2
(g6
S'\x0c\x00\x00\x00'
p149
tp150
Rp151
sVMinakami
p152
g2
(g6
S'\x03\x00\x00\x00'
p153
tp154
Rp155
sVSuzaka
p156
g2
(g6
S'\x00\x00\x00\x00'
p157
tp158
Rp159
sVAsahi
p160
g2
(g6
S'\x0f\x00\x00\x00'
p161
tp162
Rp163
sVGunma
p164
g2
(g6
S'\x00\x00\x00\x00'
p165
tp166
Rp167
sVIsumi
p168
g2
(g6
S'\x13\x00\x00\x00'
p169
tp170
Rp171
sVAkishima
p172
g2
(g6
S'\x03\x00\x00\x00'
p173
tp174
Rp175
sVNakaniikawa
p176
g2
(g6
S'\x04\x00\x00\x00'
p177
tp178
Rp179
sVTako
p180
g2
(g6
S'\x11\x00\x00\x00'
p181
tp182
Rp183
sVKanzaki
p184
g2
(g6
S'\x10\x00\x00\x00'
p185
tp186
Rp187
sVUchinada
p188
g2
(g6
S'\x07\x00\x00\x00'
p189
tp190
Rp191
sVMikata
p192
g2
(g6
S'\x04\x00\x00\x00'
p193
tp194
Rp195
sVMoriguchi
p196
g2
(g6
S'\t\x00\x00\x00'
p197
tp198
Rp199
sVYomitan
p200
g2
(g6
S'\x02\x00\x00\x00'
p201
tp202
Rp203
sVHekinan
p204
g2
(g6
S'\x01\x00\x00\x00'
p205
tp206
Rp207
sVInazawa
p208
g2
(g6
S'\x0b\x00\x00\x00'
p209
tp210
Rp211
sVKawachinagano
p212
g2
(g6
S'\x10\x00\x00\x00'
p213
tp214
Rp215
sVIruma
p216
g2
(g6
S'\x0c\x00\x00\x00'
p217
tp218
Rp219
sVAsago
p220
g2
(g6
S'\x04\x00\x00\x00'
p221
tp222
Rp223
sVKamikoani
p224
g2
(g6
S'\x0b\x00\x00\x00'
p225
tp226
Rp227
sVOkaya
p228
g2
(g6
S'\x0b\x00\x00\x00'
p229
tp230
Rp231
sVTatebayashi
p232
g2
(g6
S'\x11\x00\x00\x00'
p233
tp234
Rp235
sVKakuda
p236
g2
(g6
S'\t\x00\x00\x00'
p237
tp238
Rp239
sVSh\u014dwa
p240
g2
(g6
S'\n\x00\x00\x00'
p241
tp242
Rp243
sVSoeda
p244
g2
(g6
S'\x04\x00\x00\x00'
p245
tp246
Rp247
sVTotsukawa
p248
g2
(g6
S'\x12\x00\x00\x00'
p249
tp250
Rp251
sVMizuho
p252
g2
(g6
S'\x03\x00\x00\x00'
p253
tp254
Rp255
sVNishikatsura
p256
g2
(g6
S'\x11\x00\x00\x00'
p257
tp258
Rp259
sVMito
p260
g2
(g6
S'\n\x00\x00\x00'
p261
tp262
Rp263
sVZents\u016bji
p264
g2
(g6
S'\x11\x00\x00\x00'
p265
tp266
Rp267
sVShioya
p268
g2
(g6
S'\x07\x00\x00\x00'
p269
tp270
Rp271
sVNagashima
p272
g2
(g6
S'\x0b\x00\x00\x00'
p273
tp274
Rp275
sVNaoshima
p276
g2
(g6
S'\x0c\x00\x00\x00'
p277
tp278
Rp279
sVTakanezawa
p280
g2
(g6
S'\x06\x00\x00\x00'
p281
tp282
Rp283
sVFujinomiya
p284
g2
(g6
S'\x01\x00\x00\x00'
p285
tp286
Rp287
sVRokkasho
p288
g2
(g6
S'\x0b\x00\x00\x00'
p289
tp290
Rp291
sVAchi
p292
g2
(g6
S'\x07\x00\x00\x00'
p293
tp294
Rp295
sVMunakata
p296
g2
(g6
S'\n\x00\x00\x00'
p297
tp298
Rp299
sVTabuse
p300
g2
(g6
S'\x00\x00\x00\x00'
p301
tp302
Rp303
sVDazaifu
p304
g2
(g6
S'\x11\x00\x00\x00'
p305
tp306
Rp307
sVYamazoe
p308
g2
(g6
S'\x06\x00\x00\x00'
p309
tp310
Rp311
sVShimokitayama
p312
g2
(g6
S'\x03\x00\x00\x00'
p313
tp314
Rp315
sVOnomichi
p316
g2
(g6
S'\x10\x00\x00\x00'
p317
tp318
Rp319
sVKunisaki
p320
g2
(g6
S'\x00\x00\x00\x00'
p321
tp322
Rp323
sVKy\u014dtango
p324
g2
(g6
S'\x10\x00\x00\x00'
p325
tp326
Rp327
sVHakata
p328
g2
(g6
S'\x04\x00\x00\x00'
p329
tp330
Rp331
sVHiranai
p332
g2
(g6
S'\x00\x00\x00\x00'
p333
tp334
Rp335
sVYonabaru
p336
g2
(g6
S'\x08\x00\x00\x00'
p337
tp338
Rp339
sVMiho
p340
g2
(g6
S'\x08\x00\x00\x00'
p341
tp342
Rp343
sVNakafurano
p344
g2
(g6
S'\t\x00\x00\x00'
p345
tp346
Rp347
sVHimeji
p348
g2
(g6
S'\x01\x00\x00\x00'
p349
tp350
Rp351
sVOshino
p352
g2
(g6
S'\x03\x00\x00\x00'
p353
tp354
Rp355
sVJinseki
p356
g2
(g6
S'\t\x00\x00\x00'
p357
tp358
Rp359
sVAbu
p360
g2
(g6
S'\x0b\x00\x00\x00'
p361
tp362
Rp363
sVTabayama
p364
g2
(g6
S'\x0e\x00\x00\x00'
p365
tp366
Rp367
sVKan'onji
p368
g2
(g6
S'\x00\x00\x00\x00'
p369
tp370
Rp371
sVGam\u014d
p372
g2
(g6
S'\x0c\x00\x00\x00'
p373
tp374
Rp375
sVIinan
p376
g2
(g6
S'\t\x00\x00\x00'
p377
tp378
Rp379
sVMiyaki
p380
g2
(g6
S'\n\x00\x00\x00'
p381
tp382
Rp383
sVSaeki
p384
g2
(g6
S'\x02\x00\x00\x00'
p385
tp386
Rp387
sVKai
p388
g2
(g6
S'\x04\x00\x00\x00'
p389
tp390
Rp391
sVHokuei
p392
g2
(g6
S'\x08\x00\x00\x00'
p393
tp394
Rp395
sV\u014cmu
p396
g2
(g6
S'\x05\x00\x00\x00'
p397
tp398
Rp399
sVFujioka
p400
g2
(g6
S'\x07\x00\x00\x00'
p401
tp402
Rp403
sVKumejima
p404
g2
(g6
S'\x10\x00\x00\x00'
p405
tp406
Rp407
sVHadano
p408
g2
(g6
S'\x0b\x00\x00\x00'
p409
tp410
Rp411
sV\u014cma
p412
g2
(g6
S'\x12\x00\x00\x00'
p413
tp414
Rp415
sVNagaoka
p416
g2
(g6
S'\x0c\x00\x00\x00'
p417
tp418
Rp419
sVKasagi
p420
g2
(g6
S'\x05\x00\x00\x00'
p421
tp422
Rp423
sVShiranuka
p424
g2
(g6
S'\x0e\x00\x00\x00'
p425
tp426
Rp427
sVToyohira
p428
g2
(g6
S'\x01\x00\x00\x00'
p429
tp430
Rp431
sVYoshikawa
p432
g2
(g6
S'\x04\x00\x00\x00'
p433
tp434
Rp435
sVSatsumasendai
p436
g2
(g6
S'\x01\x00\x00\x00'
p437
tp438
Rp439
sVHeguri
p440
g2
(g6
S'\x11\x00\x00\x00'
p441
tp442
Rp443
sVKawasaki
p444
g2
(g6
S'\x06\x00\x00\x00'
p445
tp446
Rp447
sVUtazu
p448
g2
(g6
S'\x0b\x00\x00\x00'
p449
tp450
Rp451
sVSetana
p452
g2
(g6
S'\t\x00\x00\x00'
p453
tp454
Rp455
sVShitara
p456
g2
(g6
S'\x04\x00\x00\x00'
p457
tp458
Rp459
sVRusutsu
p460
g2
(g6
S'\x08\x00\x00\x00'
p461
tp462
Rp463
sVKoshigaya
p464
g2
(g6
S'\x0e\x00\x00\x00'
p465
tp466
Rp467
sVSaihaku
p468
g2
(g6
S'\x04\x00\x00\x00'
p469
tp470
Rp471
sVAogashima
p472
g2
(g6
S'\x0b\x00\x00\x00'
p473
tp474
Rp475
sVNahari
p476
g2
(g6
S'\x0b\x00\x00\x00'
p477
tp478
Rp479
sVGoka
p480
g2
(g6
S'\x12\x00\x00\x00'
p481
tp482
Rp483
sVTanba
p484
g2
(g6
S'\x08\x00\x00\x00'
p485
tp486
Rp487
sVHida
p488
g2
(g6
S'\x0b\x00\x00\x00'
p489
tp490
Rp491
sVD\u014dshi
p492
g2
(g6
S'\x01\x00\x00\x00'
p493
tp494
Rp495
sVK\u014dsh\u016b
p496
g2
(g6
S'\x07\x00\x00\x00'
p497
tp498
Rp499
sVMinano
p500
g2
(g6
S'\x04\x00\x00\x00'
p501
tp502
Rp503
sVIsehara
p504
g2
(g6
S'\x10\x00\x00\x00'
p505
tp506
Rp507
sVNogi
p508
g2
(g6
S'\x0f\x00\x00\x00'
p509
tp510
Rp511
sVKanuma
p512
g2
(g6
S'\x05\x00\x00\x00'
p513
tp514
Rp515
sV\u014cmuta
p516
g2
(g6
S'\x0b\x00\x00\x00'
p517
tp518
Rp519
sVRumoi
p520
g2
(g6
S'\x0e\x00\x00\x00'
p521
tp522
Rp523
sVNiiza
p524
g2
(g6
S'\x02\x00\x00\x00'
p525
tp526
Rp527
sVSado
p528
g2
(g6
S'\t\x00\x00\x00'
p529
tp530
Rp531
sVYabuki
p532
g2
(g6
S'\x07\x00\x00\x00'
p533
tp534
Rp535
sVRifu
p536
g2
(g6
S'\x13\x00\x00\x00'
p537
tp538
Rp539
sVNishitsugaru
p540
g2
(g6
S'\x03\x00\x00\x00'
p541
tp542
Rp543
sVSeto
p544
g2
(g6
S'\x12\x00\x00\x00'
p545
tp546
Rp547
sVKosai
p548
g2
(g6
S'\x07\x00\x00\x00'
p549
tp550
Rp551
sVT\u014dmi
p552
g2
(g6
S'\n\x00\x00\x00'
p553
tp554
Rp555
sVChihayaakasaka
p556
g2
(g6
S'\x02\x00\x00\x00'
p557
tp558
Rp559
sVShikabe
p560
g2
(g6
S'\x13\x00\x00\x00'
p561
tp562
Rp563
sVT\u014dma
p564
g2
(g6
S'\x11\x00\x00\x00'
p565
tp566
Rp567
sVSasayama
p568
g2
(g6
S'\x11\x00\x00\x00'
p569
tp570
Rp571
sVUkiha
p572
g2
(g6
S'\x06\x00\x00\x00'
p573
tp574
Rp575
sVIchinomiya
p576
g2
(g6
S'\n\x00\x00\x00'
p577
tp578
Rp579
sV\u014camishirasato
p580
g2
(g6
S'\x0b\x00\x00\x00'
p581
tp582
Rp583
sVKunitachi
p584
g2
(g6
S'\x00\x00\x00\x00'
p585
tp586
Rp587
sVAgematsu
p588
g2
(g6
S'\r\x00\x00\x00'
p589
tp590
Rp591
sVNarashino
p592
g2
(g6
S'\x06\x00\x00\x00'
p593
tp594
Rp595
sVShirataka
p596
g2
(g6
S'\x0b\x00\x00\x00'
p597
tp598
Rp599
sVHata
p600
g2
(g6
S'\x07\x00\x00\x00'
p601
tp602
Rp603
sVAgawa
p604
g2
(g6
S'\x0e\x00\x00\x00'
p605
tp606
Rp607
sVKamikawa
p608
g2
(g6
S'\n\x00\x00\x00'
p609
tp610
Rp611
sVSatsuma
p612
g2
(g6
S'\x12\x00\x00\x00'
p613
tp614
Rp615
sVKatsuura
p616
g2
(g6
S'\x0c\x00\x00\x00'
p617
tp618
Rp619
sVGoshogawara
p620
g2
(g6
S'\x02\x00\x00\x00'
p621
tp622
Rp623
sVFujikawa
p624
g2
(g6
S'\x03\x00\x00\x00'
p625
tp626
Rp627
sVKatano
p628
g2
(g6
S'\x10\x00\x00\x00'
p629
tp630
Rp631
sVAgui
p632
g2
(g6
S'\x0e\x00\x00\x00'
p633
tp634
Rp635
sVAshoro
p636
g2
(g6
S'\x11\x00\x00\x00'
p637
tp638
Rp639
sVYomogita
p640
g2
(g6
S'\x04\x00\x00\x00'
p641
tp642
Rp643
sVOkazaki
p644
g2
(g6
S'\x0e\x00\x00\x00'
p645
tp646
Rp647
sVSh\u014dnai
p648
g2
(g6
S'\x12\x00\x00\x00'
p649
tp650
Rp651
sVOtobe
p652
g2
(g6
S'\r\x00\x00\x00'
p653
tp654
Rp655
sVKunneppu
p656
g2
(g6
S'\x00\x00\x00\x00'
p657
tp658
Rp659
sVIt\u014d
p660
g2
(g6
S'\t\x00\x00\x00'
p661
tp662
Rp663
sVTsukumi
p664
g2
(g6
S'\x05\x00\x00\x00'
p665
tp666
Rp667
sVTaketoyo
p668
g2
(g6
S'\n\x00\x00\x00'
p669
tp670
Rp671
sVIbara
p672
g2
(g6
S'\x11\x00\x00\x00'
p673
tp674
Rp675
sVNoboribetsu
p676
g2
(g6
S'\x04\x00\x00\x00'
p677
tp678
Rp679
sVUgo
p680
g2
(g6
S'\x01\x00\x00\x00'
p681
tp682
Rp683
sVKushiro
p684
g2
(g6
S'\x00\x00\x00\x00'
p685
tp686
Rp687
sVMiura
p688
g2
(g6
S'\x11\x00\x00\x00'
p689
tp690
Rp691
sVNakagy\u014d
p692
g2
(g6
S'\x11\x00\x00\x00'
p693
tp694
Rp695
sVKitakata
p696
g2
(g6
S'\x01\x00\x00\x00'
p697
tp698
Rp699
sVWajima
p700
g2
(g6
S'\x0c\x00\x00\x00'
p701
tp702
Rp703
sVT\u014dkai
p704
g2
(g6
S'\x05\x00\x00\x00'
p705
tp706
Rp707
sVNaie
p708
g2
(g6
S'\x12\x00\x00\x00'
p709
tp710
Rp711
sVHigashimatsuura
p712
g2
(g6
S'\x0c\x00\x00\x00'
p713
tp714
Rp715
sVYamaguchi
p716
g2
(g6
S'\x05\x00\x00\x00'
p717
tp718
Rp719
sVAshikita
p720
g2
(g6
S'\x06\x00\x00\x00'
p721
tp722
Rp723
sVYaotsu
p724
g2
(g6
S'\x05\x00\x00\x00'
p725
tp726
Rp727
sVTakinoue
p728
g2
(g6
S'\t\x00\x00\x00'
p729
tp730
Rp731
sVSunagawa
p732
g2
(g6
S'\x05\x00\x00\x00'
p733
tp734
Rp735
sVKatsushika
p736
g2
(g6
S'\x0c\x00\x00\x00'
p737
tp738
Rp739
sVK\u014dshi
p740
g2
(g6
S'\x06\x00\x00\x00'
p741
tp742
Rp743
sVShinchi
p744
g2
(g6
S'\x11\x00\x00\x00'
p745
tp746
Rp747
sVSayama
p748
g2
(g6
S'\x0b\x00\x00\x00'
p749
tp750
Rp751
sVBand\u014d
p752
g2
(g6
S'\x0f\x00\x00\x00'
p753
tp754
Rp755
sVNagaokaky\u014d
p756
g2
(g6
S'\x0f\x00\x00\x00'
p757
tp758
Rp759
sVChikuj\u014d
p760
g2
(g6
S'\x02\x00\x00\x00'
p761
tp762
Rp763
sVAnpachi
p764
g2
(g6
S'\x0b\x00\x00\x00'
p765
tp766
Rp767
sVMinamis\u014dma
p768
g2
(g6
S'\x0e\x00\x00\x00'
p769
tp770
Rp771
sVHigashiyoshino
p772
g2
(g6
S'\x0b\x00\x00\x00'
p773
tp774
Rp775
sVTarumizu
p776
g2
(g6
S'\x08\x00\x00\x00'
p777
tp778
Rp779
sVAtsuta
p780
g2
(g6
S'\x12\x00\x00\x00'
p781
tp782
Rp783
sVKatsuyama
p784
g2
(g6
S'\x0e\x00\x00\x00'
p785
tp786
Rp787
sVYusuhara
p788
g2
(g6
S'\x0e\x00\x00\x00'
p789
tp790
Rp791
sVShiiba
p792
g2
(g6
S'\x0f\x00\x00\x00'
p793
tp794
Rp795
sVMinamitsugaru
p796
g2
(g6
S'\t\x00\x00\x00'
p797
tp798
Rp799
sVIshii
p800
g2
(g6
S'\x07\x00\x00\x00'
p801
tp802
Rp803
sVAkita
p804
g2
(g6
S'\x10\x00\x00\x00'
p805
tp806
Rp807
sVAik\u014d
p808
g2
(g6
S'\t\x00\x00\x00'
p809
tp810
Rp811
sVKitatsugaru
p812
g2
(g6
S'\t\x00\x00\x00'
p813
tp814
Rp815
sVKitakatsushika
p816
g2
(g6
S'\x02\x00\x00\x00'
p817
tp818
Rp819
sVNayoro
p820
g2
(g6
S'\x06\x00\x00\x00'
p821
tp822
Rp823
sVKitashiobara
p824
g2
(g6
S'\x12\x00\x00\x00'
p825
tp826
Rp827
sVKuj\u016bkuri
p828
g2
(g6
S'\x12\x00\x00\x00'
p829
tp830
Rp831
sVHachij\u014d
p832
g2
(g6
S'\x00\x00\x00\x00'
p833
tp834
Rp835
sVHodogaya
p836
g2
(g6
S'\r\x00\x00\x00'
p837
tp838
Rp839
sVNakayama
p840
g2
(g6
S'\x02\x00\x00\x00'
p841
tp842
Rp843
sVGonohe
p844
g2
(g6
S'\x06\x00\x00\x00'
p845
tp846
Rp847
sVGero
p848
g2
(g6
S'\n\x00\x00\x00'
p849
tp850
Rp851
sVMaebashi
p852
g2
(g6
S'\x0f\x00\x00\x00'
p853
tp854
Rp855
sVIzu
p856
g2
(g6
S'\x0e\x00\x00\x00'
p857
tp858
Rp859
sVKimotsuki
p860
g2
(g6
S'\t\x00\x00\x00'
p861
tp862
Rp863
sVImari
p864
g2
(g6
S'\x06\x00\x00\x00'
p865
tp866
Rp867
sVTaiki
p868
g2
(g6
S'\x13\x00\x00\x00'
p869
tp870
Rp871
sVSakata
p872
g2
(g6
S'\x05\x00\x00\x00'
p873
tp874
Rp875
sVIshinomaki
p876
g2
(g6
S'\x01\x00\x00\x00'
p877
tp878
Rp879
sVManazuru
p880
g2
(g6
S'\x02\x00\x00\x00'
p881
tp882
Rp883
sVSan'y\u014donoda
p884
g2
(g6
S'\x00\x00\x00\x00'
p885
tp886
Rp887
sVAso
p888
g2
(g6
S'\t\x00\x00\x00'
p889
tp890
Rp891
sVToshima
p892
g2
(g6
S'\x13\x00\x00\x00'
p893
tp894
Rp895
sVShiroishi
p896
g2
(g6
S'\x0c\x00\x00\x00'
p897
tp898
Rp899
sVMeiwa
p900
g2
(g6
S'\x03\x00\x00\x00'
p901
tp902
Rp903
sVShiojiri
p904
g2
(g6
S'\x10\x00\x00\x00'
p905
tp906
Rp907
sVObuse
p908
g2
(g6
S'\x08\x00\x00\x00'
p909
tp910
Rp911
sVKink\u014d
p912
g2
(g6
S'\x0b\x00\x00\x00'
p913
tp914
Rp915
sVOguni
p916
g2
(g6
S'\x13\x00\x00\x00'
p917
tp918
Rp919
sVKamisu
p920
g2
(g6
S'\x00\x00\x00\x00'
p921
tp922
Rp923
sVAizubange
p924
g2
(g6
S'\x00\x00\x00\x00'
p925
tp926
Rp927
sVShibetsu
p928
g2
(g6
S'\x11\x00\x00\x00'
p929
tp930
Rp931
sVUken
p932
g2
(g6
S'\x01\x00\x00\x00'
p933
tp934
Rp935
sVAish\u014d
p936
g2
(g6
S'\x10\x00\x00\x00'
p937
tp938
Rp939
sVKiyose
p940
g2
(g6
S'\x10\x00\x00\x00'
p941
tp942
Rp943
sVNakatane
p944
g2
(g6
S'\x04\x00\x00\x00'
p945
tp946
Rp947
sVHigashinaruse
p948
g2
(g6
S'\x01\x00\x00\x00'
p949
tp950
Rp951
sVShikama
p952
g2
(g6
S'\n\x00\x00\x00'
p953
tp954
Rp955
sVYamakita
p956
g2
(g6
S'\x02\x00\x00\x00'
p957
tp958
Rp959
sVKiyosu
p960
g2
(g6
S'\x06\x00\x00\x00'
p961
tp962
Rp963
sVHigashiokitama
p964
g2
(g6
S'\t\x00\x00\x00'
p965
tp966
Rp967
sVSakuragawa
p968
g2
(g6
S'\x0f\x00\x00\x00'
p969
tp970
Rp971
sVMinamisaitama
p972
g2
(g6
S'\x07\x00\x00\x00'
p973
tp974
Rp975
sVKokuraminami
p976
g2
(g6
S'\x13\x00\x00\x00'
p977
tp978
Rp979
sVKy\u014dwa
p980
g2
(g6
S'\x0c\x00\x00\x00'
p981
tp982
Rp983
sVNita
p984
g2
(g6
S'\x03\x00\x00\x00'
p985
tp986
Rp987
sVYakage
p988
g2
(g6
S'\x13\x00\x00\x00'
p989
tp990
Rp991
sVChiyoda
p992
g2
(g6
S'\x03\x00\x00\x00'
p993
tp994
Rp995
sVMizumaki
p996
g2
(g6
S'\x04\x00\x00\x00'
p997
tp998
Rp999
sVKikonai
p1000
g2
(g6
S'\x03\x00\x00\x00'
p1001
tp1002
Rp1003
sVInawashiro
p1004
g2
(g6
S'\t\x00\x00\x00'
p1005
tp1006
Rp1007
sVKitaadachi
p1008
g2
(g6
S'\x08\x00\x00\x00'
p1009
tp1010
Rp1011
sVKotake
p1012
g2
(g6
S'\x03\x00\x00\x00'
p1013
tp1014
Rp1015
sVKamiina
p1016
g2
(g6
S'\x10\x00\x00\x00'
p1017
tp1018
Rp1019
sVMinuma
p1020
g2
(g6
S'\n\x00\x00\x00'
p1021
tp1022
Rp1023
sV\u014ctawara
p1024
g2
(g6
S'\x10\x00\x00\x00'
p1025
tp1026
Rp1027
sVMinamishimabara
p1028
g2
(g6
S'\x0c\x00\x00\x00'
p1029
tp1030
Rp1031
sVKadoma
p1032
g2
(g6
S'\x10\x00\x00\x00'
p1033
tp1034
Rp1035
sVHashima
p1036
g2
(g6
S'\x0f\x00\x00\x00'
p1037
tp1038
Rp1039
sVAomori
p1040
g2
(g6
S'\x00\x00\x00\x00'
p1041
tp1042
Rp1043
sVKitaky\u016bsh\u016b
p1044
g2
(g6
S'\x0c\x00\x00\x00'
p1045
tp1046
Rp1047
sVOh\u014dtsuku
p1048
g2
(g6
S'\x13\x00\x00\x00'
p1049
tp1050
Rp1051
sVM\u014dka
p1052
g2
(g6
S'\x10\x00\x00\x00'
p1053
tp1054
Rp1055
sVNamerikawa
p1056
g2
(g6
S'\x0e\x00\x00\x00'
p1057
tp1058
Rp1059
sVMoriyama
p1060
g2
(g6
S'\x00\x00\x00\x00'
p1061
tp1062
Rp1063
sVKimobetsu
p1064
g2
(g6
S'\t\x00\x00\x00'
p1065
tp1066
Rp1067
sVTonosh\u014d
p1068
g2
(g6
S'\x07\x00\x00\x00'
p1069
tp1070
Rp1071
sVBungotakada
p1072
g2
(g6
S'\x02\x00\x00\x00'
p1073
tp1074
Rp1075
sV\u014cno
p1076
g2
(g6
S'\x08\x00\x00\x00'
p1077
tp1078
Rp1079
sVTokushima
p1080
g2
(g6
S'\x03\x00\x00\x00'
p1081
tp1082
Rp1083
sVKunimi
p1084
g2
(g6
S'\x0b\x00\x00\x00'
p1085
tp1086
Rp1087
sVOgose
p1088
g2
(g6
S'\x02\x00\x00\x00'
p1089
tp1090
Rp1091
sVShimonita
p1092
g2
(g6
S'\t\x00\x00\x00'
p1093
tp1094
Rp1095
sVDaisen
p1096
g2
(g6
S'\x08\x00\x00\x00'
p1097
tp1098
Rp1099
sV\u014ce
p1100
g2
(g6
S'\x02\x00\x00\x00'
p1101
tp1102
Rp1103
sVKumenan
p1104
g2
(g6
S'\x12\x00\x00\x00'
p1105
tp1106
Rp1107
sVShirakawa
p1108
g2
(g6
S'\x0f\x00\x00\x00'
p1109
tp1110
Rp1111
sVNiimi
p1112
g2
(g6
S'\x06\x00\x00\x00'
p1113
tp1114
Rp1115
sVMatsushige
p1116
g2
(g6
S'\x0c\x00\x00\x00'
p1117
tp1118
Rp1119
sV\u014ci
p1120
g2
(g6
S'\x05\x00\x00\x00'
p1121
tp1122
Rp1123
sVKais\u014d
p1124
g2
(g6
S'\x02\x00\x00\x00'
p1125
tp1126
Rp1127
sVHikari
p1128
g2
(g6
S'\r\x00\x00\x00'
p1129
tp1130
Rp1131
sVTsuchiura
p1132
g2
(g6
S'\x04\x00\x00\x00'
p1133
tp1134
Rp1135
sVAkaigawa
p1136
g2
(g6
S'\r\x00\x00\x00'
p1137
tp1138
Rp1139
sVNanj\u014d
p1140
g2
(g6
S'\x07\x00\x00\x00'
p1141
tp1142
Rp1143
sVFus\u014d
p1144
g2
(g6
S'\x12\x00\x00\x00'
p1145
tp1146
Rp1147
sVInabe
p1148
g2
(g6
S'\x12\x00\x00\x00'
p1149
tp1150
Rp1151
sVSannohe
p1152
g2
(g6
S'\x00\x00\x00\x00'
p1153
tp1154
Rp1155
sVGifu
p1156
g2
(g6
S'\x10\x00\x00\x00'
p1157
tp1158
Rp1159
sVNaha
p1160
g2
(g6
S'\t\x00\x00\x00'
p1161
tp1162
Rp1163
sVIwade
p1164
g2
(g6
S'\x06\x00\x00\x00'
p1165
tp1166
Rp1167
sVHiki
p1168
g2
(g6
S'\x0c\x00\x00\x00'
p1169
tp1170
Rp1171
sVInzai
p1172
g2
(g6
S'\t\x00\x00\x00'
p1173
tp1174
Rp1175
sVShihoro
p1176
g2
(g6
S'\x13\x00\x00\x00'
p1177
tp1178
Rp1179
sVNakahara
p1180
g2
(g6
S'\x0e\x00\x00\x00'
p1181
tp1182
Rp1183
sVAkkeshi
p1184
g2
(g6
S'\x0b\x00\x00\x00'
p1185
tp1186
Rp1187
sVUeda
p1188
g2
(g6
S'\x10\x00\x00\x00'
p1189
tp1190
Rp1191
sVKitanagoya
p1192
g2
(g6
S'\x02\x00\x00\x00'
p1193
tp1194
Rp1195
sVHanda
p1196
g2
(g6
S'\x02\x00\x00\x00'
p1197
tp1198
Rp1199
sVMiyada
p1200
g2
(g6
S'\x11\x00\x00\x00'
p1201
tp1202
Rp1203
sVSusami
p1204
g2
(g6
S'\x0c\x00\x00\x00'
p1205
tp1206
Rp1207
sVTagata
p1208
g2
(g6
S'\x00\x00\x00\x00'
p1209
tp1210
Rp1211
sVHirata
p1212
g2
(g6
S'\x11\x00\x00\x00'
p1213
tp1214
Rp1215
sVSunt\u014d
p1216
g2
(g6
S'\x0b\x00\x00\x00'
p1217
tp1218
Rp1219
sVOjika
p1220
g2
(g6
S'\x03\x00\x00\x00'
p1221
tp1222
Rp1223
sVTenri
p1224
g2
(g6
S'\x00\x00\x00\x00'
p1225
tp1226
Rp1227
sVMuroto
p1228
g2
(g6
S'\x05\x00\x00\x00'
p1229
tp1230
Rp1231
sVShinjuku
p1232
g2
(g6
S'\r\x00\x00\x00'
p1233
tp1234
Rp1235
sVSasaguri
p1236
g2
(g6
S'\x10\x00\x00\x00'
p1237
tp1238
Rp1239
sVKanie
p1240
g2
(g6
S'\x02\x00\x00\x00'
p1241
tp1242
Rp1243
sVSh\u014ddoshima
p1244
g2
(g6
S'\x12\x00\x00\x00'
p1245
tp1246
Rp1247
sVAoba
p1248
g2
(g6
S'\x03\x00\x00\x00'
p1249
tp1250
Rp1251
sVRankoshi
p1252
g2
(g6
S'\x03\x00\x00\x00'
p1253
tp1254
Rp1255
sVKamifurano
p1256
g2
(g6
S'\x04\x00\x00\x00'
p1257
tp1258
Rp1259
sVAbira
p1260
g2
(g6
S'\x05\x00\x00\x00'
p1261
tp1262
Rp1263
sVIwakuni
p1264
g2
(g6
S'\x01\x00\x00\x00'
p1265
tp1266
Rp1267
sV\u014czora
p1268
g2
(g6
S'\x10\x00\x00\x00'
p1269
tp1270
Rp1271
sVNakatosa
p1272
g2
(g6
S'\x0c\x00\x00\x00'
p1273
tp1274
Rp1275
sVMinamiyamashiro
p1276
g2
(g6
S'\t\x00\x00\x00'
p1277
tp1278
Rp1279
sVTsukubamirai
p1280
g2
(g6
S'\x13\x00\x00\x00'
p1281
tp1282
Rp1283
sVOnga
p1284
g2
(g6
S'\x01\x00\x00\x00'
p1285
tp1286
Rp1287
sVAdachi
p1288
g2
(g6
S'\x0f\x00\x00\x00'
p1289
tp1290
Rp1291
sVTokunoshima
p1292
g2
(g6
S'\x08\x00\x00\x00'
p1293
tp1294
Rp1295
sVTsukubo
p1296
g2
(g6
S'\x12\x00\x00\x00'
p1297
tp1298
Rp1299
sVKasai
p1300
g2
(g6
S'\x03\x00\x00\x00'
p1301
tp1302
Rp1303
sVIiyama
p1304
g2
(g6
S'\x08\x00\x00\x00'
p1305
tp1306
Rp1307
sVUto
p1308
g2
(g6
S'\x12\x00\x00\x00'
p1309
tp1310
Rp1311
sVTomata
p1312
g2
(g6
S'\x06\x00\x00\x00'
p1313
tp1314
Rp1315
sVCh\u014dnan
p1316
g2
(g6
S'\x07\x00\x00\x00'
p1317
tp1318
Rp1319
sVTsurumi
p1320
g2
(g6
S'\x06\x00\x00\x00'
p1321
tp1322
Rp1323
sVY\u016bbetsu
p1324
g2
(g6
S'\x05\x00\x00\x00'
p1325
tp1326
Rp1327
sVShibayama
p1328
g2
(g6
S'\x03\x00\x00\x00'
p1329
tp1330
Rp1331
sVShij\u014dnawate
p1332
g2
(g6
S'\x06\x00\x00\x00'
p1333
tp1334
Rp1335
sV\u014cishida
p1336
g2
(g6
S'\x10\x00\x00\x00'
p1337
tp1338
Rp1339
sVMoji
p1340
g2
(g6
S'\x01\x00\x00\x00'
p1341
tp1342
Rp1343
sVWakamatsu
p1344
g2
(g6
S'\x03\x00\x00\x00'
p1345
tp1346
Rp1347
sVNakanoto
p1348
g2
(g6
S'\x0c\x00\x00\x00'
p1349
tp1350
Rp1351
sVMizuma
p1352
g2
(g6
S'\x0b\x00\x00\x00'
p1353
tp1354
Rp1355
sVFukuchi
p1356
g2
(g6
S'\x0f\x00\x00\x00'
p1357
tp1358
Rp1359
sVMitsue
p1360
g2
(g6
S'\x04\x00\x00\x00'
p1361
tp1362
Rp1363
sVKadogawa
p1364
g2
(g6
S'\x06\x00\x00\x00'
p1365
tp1366
Rp1367
sVMatsuura
p1368
g2
(g6
S'\x0f\x00\x00\x00'
p1369
tp1370
Rp1371
sVOgano
p1372
g2
(g6
S'\x03\x00\x00\x00'
p1373
tp1374
Rp1375
sVTogitsu
p1376
g2
(g6
S'\x03\x00\x00\x00'
p1377
tp1378
Rp1379
sVUshiku
p1380
g2
(g6
S'\x02\x00\x00\x00'
p1381
tp1382
Rp1383
sVFukuroi
p1384
g2
(g6
S'\x13\x00\x00\x00'
p1385
tp1386
Rp1387
sVHashikami
p1388
g2
(g6
S'\x01\x00\x00\x00'
p1389
tp1390
Rp1391
sVTakachiho
p1392
g2
(g6
S'\x0c\x00\x00\x00'
p1393
tp1394
Rp1395
sVItako
p1396
g2
(g6
S'\x02\x00\x00\x00'
p1397
tp1398
Rp1399
sVKako
p1400
g2
(g6
S'\t\x00\x00\x00'
p1401
tp1402
Rp1403
sVKariwa
p1404
g2
(g6
S'\x11\x00\x00\x00'
p1405
tp1406
Rp1407
sVIki
p1408
g2
(g6
S'\x0c\x00\x00\x00'
p1409
tp1410
Rp1411
sVSanj\u014d
p1412
g2
(g6
S'\x0e\x00\x00\x00'
p1413
tp1414
Rp1415
sVUenohara
p1416
g2
(g6
S'\x03\x00\x00\x00'
p1417
tp1418
Rp1419
sVSakegawa
p1420
g2
(g6
S'\x05\x00\x00\x00'
p1421
tp1422
Rp1423
sVRebun
p1424
g2
(g6
S'\x02\x00\x00\x00'
p1425
tp1426
Rp1427
sVToyohashi
p1428
g2
(g6
S'\x08\x00\x00\x00'
p1429
tp1430
Rp1431
sVMikurajima
p1432
g2
(g6
S'\r\x00\x00\x00'
p1433
tp1434
Rp1435
sVKatashina
p1436
g2
(g6
S'\x08\x00\x00\x00'
p1437
tp1438
Rp1439
sVKiyokawa
p1440
g2
(g6
S'\n\x00\x00\x00'
p1441
tp1442
Rp1443
sVTahara
p1444
g2
(g6
S'\x0e\x00\x00\x00'
p1445
tp1446
Rp1447
sVTsuyama
p1448
g2
(g6
S'\n\x00\x00\x00'
p1449
tp1450
Rp1451
sVYugawa
p1452
g2
(g6
S'\x13\x00\x00\x00'
p1453
tp1454
Rp1455
sVHigashinada
p1456
g2
(g6
S'\x13\x00\x00\x00'
p1457
tp1458
Rp1459
sVMino
p1460
g2
(g6
S'\x07\x00\x00\x00'
p1461
tp1462
Rp1463
sVBibai
p1464
g2
(g6
S'\x11\x00\x00\x00'
p1465
tp1466
Rp1467
sVMurakami
p1468
g2
(g6
S'\n\x00\x00\x00'
p1469
tp1470
Rp1471
sVMine
p1472
g2
(g6
S'\t\x00\x00\x00'
p1473
tp1474
Rp1475
sVKumak\u014dgen
p1476
g2
(g6
S'\x0b\x00\x00\x00'
p1477
tp1478
Rp1479
sVFuttsu
p1480
g2
(g6
S'\x12\x00\x00\x00'
p1481
tp1482
Rp1483
sVNobeoka
p1484
g2
(g6
S'\t\x00\x00\x00'
p1485
tp1486
Rp1487
sVTonaki
p1488
g2
(g6
S'\x12\x00\x00\x00'
p1489
tp1490
Rp1491
sVNada
p1492
g2
(g6
S'\n\x00\x00\x00'
p1493
tp1494
Rp1495
sVKobayashi
p1496
g2
(g6
S'\x11\x00\x00\x00'
p1497
tp1498
Rp1499
sVEsashi
p1500
g2
(g6
S'\x11\x00\x00\x00'
p1501
tp1502
Rp1503
sVBiei
p1504
g2
(g6
S'\x00\x00\x00\x00'
p1505
tp1506
Rp1507
sVOkinawa
p1508
g2
(g6
S'\x0f\x00\x00\x00'
p1509
tp1510
Rp1511
sVSuwa
p1512
g2
(g6
S'\t\x00\x00\x00'
p1513
tp1514
Rp1515
sVObanazawa
p1516
g2
(g6
S'\x05\x00\x00\x00'
p1517
tp1518
Rp1519
sVShimukappu
p1520
g2
(g6
S'\x11\x00\x00\x00'
p1521
tp1522
Rp1523
sVHy\u014dgo
p1524
g2
(g6
S'\x01\x00\x00\x00'
p1525
tp1526
Rp1527
sVShimoina
p1528
g2
(g6
S'\x08\x00\x00\x00'
p1529
tp1530
Rp1531
sVKomagane
p1532
g2
(g6
S'\x0e\x00\x00\x00'
p1533
tp1534
Rp1535
sVKanoashi
p1536
g2
(g6
S'\x05\x00\x00\x00'
p1537
tp1538
Rp1539
sVIyo
p1540
g2
(g6
S'\r\x00\x00\x00'
p1541
tp1542
Rp1543
sVKawakami
p1544
g2
(g6
S'\t\x00\x00\x00'
p1545
tp1546
Rp1547
sVMotomiya
p1548
g2
(g6
S'\n\x00\x00\x00'
p1549
tp1550
Rp1551
sVKosaka
p1552
g2
(g6
S'\t\x00\x00\x00'
p1553
tp1554
Rp1555
sVKih\u014d
p1556
g2
(g6
S'\x13\x00\x00\x00'
p1557
tp1558
Rp1559
sVKawajima
p1560
g2
(g6
S'\x10\x00\x00\x00'
p1561
tp1562
Rp1563
sVYanai
p1564
g2
(g6
S'\x06\x00\x00\x00'
p1565
tp1566
Rp1567
sVAikawa
p1568
g2
(g6
S'\x00\x00\x00\x00'
p1569
tp1570
Rp1571
sVTakahata
p1572
g2
(g6
S'\x10\x00\x00\x00'
p1573
tp1574
Rp1575
sVKamihei
p1576
g2
(g6
S'\t\x00\x00\x00'
p1577
tp1578
Rp1579
sVEchi
p1580
g2
(g6
S'\x02\x00\x00\x00'
p1581
tp1582
Rp1583
sVSotogahama
p1584
g2
(g6
S'\x13\x00\x00\x00'
p1585
tp1586
Rp1587
sVHiji
p1588
g2
(g6
S'\x05\x00\x00\x00'
p1589
tp1590
Rp1591
sVTaish\u014d
p1592
g2
(g6
S'\x0c\x00\x00\x00'
p1593
tp1594
Rp1595
sVShinj\u014d
p1596
g2
(g6
S'\x03\x00\x00\x00'
p1597
tp1598
Rp1599
sVIchikawamisato
p1600
g2
(g6
S'\x03\x00\x00\x00'
p1601
tp1602
Rp1603
sVRy\u016bgasaki
p1604
g2
(g6
S'\x12\x00\x00\x00'
p1605
tp1606
Rp1607
sVUrugi
p1608
g2
(g6
S'\t\x00\x00\x00'
p1609
tp1610
Rp1611
sVHigashikanbara
p1612
g2
(g6
S'\x0c\x00\x00\x00'
p1613
tp1614
Rp1615
sVHirao
p1616
g2
(g6
S'\x01\x00\x00\x00'
p1617
tp1618
Rp1619
sVFujikawaguchiko
p1620
g2
(g6
S'\x10\x00\x00\x00'
p1621
tp1622
Rp1623
sVMy\u014dzai
p1624
g2
(g6
S'\x04\x00\x00\x00'
p1625
tp1626
Rp1627
sV\u014cra
p1628
g2
(g6
S'\x0f\x00\x00\x00'
p1629
tp1630
Rp1631
sVAtami
p1632
g2
(g6
S'\x03\x00\x00\x00'
p1633
tp1634
Rp1635
sVIizuna
p1636
g2
(g6
S'\x02\x00\x00\x00'
p1637
tp1638
Rp1639
sVNiwa
p1640
g2
(g6
S'\x10\x00\x00\x00'
p1641
tp1642
Rp1643
sVChigasaki
p1644
g2
(g6
S'\x0e\x00\x00\x00'
p1645
tp1646
Rp1647
sVUozu
p1648
g2
(g6
S'\x0f\x00\x00\x00'
p1649
tp1650
Rp1651
sVAtsugi
p1652
g2
(g6
S'\x11\x00\x00\x00'
p1653
tp1654
Rp1655
sVKumatori
p1656
g2
(g6
S'\t\x00\x00\x00'
p1657
tp1658
Rp1659
sVAizumi
p1660
g2
(g6
S'\x05\x00\x00\x00'
p1661
tp1662
Rp1663
sVSawara
p1664
g2
(g6
S'\x0c\x00\x00\x00'
p1665
tp1666
Rp1667
sVUsa
p1668
g2
(g6
S'\x11\x00\x00\x00'
p1669
tp1670
Rp1671
sVKumiyama
p1672
g2
(g6
S'\x0f\x00\x00\x00'
p1673
tp1674
Rp1675
sVNiki
p1676
g2
(g6
S'\x02\x00\x00\x00'
p1677
tp1678
Rp1679
sVYuni
p1680
g2
(g6
S'\x13\x00\x00\x00'
p1681
tp1682
Rp1683
sVRishirifuji
p1684
g2
(g6
S'\x01\x00\x00\x00'
p1685
tp1686
Rp1687
sVOkushiri
p1688
g2
(g6
S'\x06\x00\x00\x00'
p1689
tp1690
Rp1691
sVMikasa
p1692
g2
(g6
S'\x0e\x00\x00\x00'
p1693
tp1694
Rp1695
sVGy\u014dda
p1696
g2
(g6
S'\r\x00\x00\x00'
p1697
tp1698
Rp1699
sVOwase
p1700
g2
(g6
S'\r\x00\x00\x00'
p1701
tp1702
Rp1703
sVYuzawa
p1704
g2
(g6
S'\x0c\x00\x00\x00'
p1705
tp1706
Rp1707
sVUsuki
p1708
g2
(g6
S'\x08\x00\x00\x00'
p1709
tp1710
Rp1711
sVShimanto
p1712
g2
(g6
S'\x11\x00\x00\x00'
p1713
tp1714
Rp1715
sVTenry\u016b
p1716
g2
(g6
S'\x13\x00\x00\x00'
p1717
tp1718
Rp1719
sVHisayama
p1720
g2
(g6
S'\x03\x00\x00\x00'
p1721
tp1722
Rp1723
sVKitagunma
p1724
g2
(g6
S'\x13\x00\x00\x00'
p1725
tp1726
Rp1727
sVHapp\u014d
p1728
g2
(g6
S'\x12\x00\x00\x00'
p1729
tp1730
Rp1731
sVYorii
p1732
g2
(g6
S'\x12\x00\x00\x00'
p1733
tp1734
Rp1735
sVKahoku
p1736
g2
(g6
S'\t\x00\x00\x00'
p1737
tp1738
Rp1739
sVKikai
p1740
g2
(g6
S'\x0c\x00\x00\x00'
p1741
tp1742
Rp1743
sVSagara
p1744
g2
(g6
S'\x13\x00\x00\x00'
p1745
tp1746
Rp1747
sVAnnaka
p1748
g2
(g6
S'\x12\x00\x00\x00'
p1749
tp1750
Rp1751
sVNagano
p1752
g2
(g6
S'\x07\x00\x00\x00'
p1753
tp1754
Rp1755
sVMasuda
p1756
g2
(g6
S'\x0e\x00\x00\x00'
p1757
tp1758
Rp1759
sVHamanaka
p1760
g2
(g6
S'\r\x00\x00\x00'
p1761
tp1762
Rp1763
sVYonago
p1764
g2
(g6
S'\x11\x00\x00\x00'
p1765
tp1766
Rp1767
sVTone
p1768
g2
(g6
S'\x02\x00\x00\x00'
p1769
tp1770
Rp1771
sVNakakoma
p1772
g2
(g6
S'\t\x00\x00\x00'
p1773
tp1774
Rp1775
sVTakatori
p1776
g2
(g6
S'\x13\x00\x00\x00'
p1777
tp1778
Rp1779
sV\u014cyamazaki
p1780
g2
(g6
S'\n\x00\x00\x00'
p1781
tp1782
Rp1783
sVKameoka
p1784
g2
(g6
S'\x01\x00\x00\x00'
p1785
tp1786
Rp1787
sVHiezu
p1788
g2
(g6
S'\x0b\x00\x00\x00'
p1789
tp1790
Rp1791
sVKikuchi
p1792
g2
(g6
S'\x0c\x00\x00\x00'
p1793
tp1794
Rp1795
sVArida
p1796
g2
(g6
S'\x0b\x00\x00\x00'
p1797
tp1798
Rp1799
sVKagoshima
p1800
g2
(g6
S'\x08\x00\x00\x00'
p1801
tp1802
Rp1803
sVNakanoj\u014d
p1804
g2
(g6
S'\x10\x00\x00\x00'
p1805
tp1806
Rp1807
sVAshibetsu
p1808
g2
(g6
S'\x0b\x00\x00\x00'
p1809
tp1810
Rp1811
sVRubetsu
p1812
g2
(g6
S'\x00\x00\x00\x00'
p1813
tp1814
Rp1815
sVNishimeya
p1816
g2
(g6
S'\x01\x00\x00\x00'
p1817
tp1818
Rp1819
sVRuyobetsu
p1820
g2
(g6
S'\x12\x00\x00\x00'
p1821
tp1822
Rp1823
sVAshikaga
p1824
g2
(g6
S'\n\x00\x00\x00'
p1825
tp1826
Rp1827
sVShibecha
p1828
g2
(g6
S'\x0c\x00\x00\x00'
p1829
tp1830
Rp1831
sVNishiwaga
p1832
g2
(g6
S'\x05\x00\x00\x00'
p1833
tp1834
Rp1835
sVShimonoseki
p1836
g2
(g6
S'\x07\x00\x00\x00'
p1837
tp1838
Rp1839
sVKoganei
p1840
g2
(g6
S'\x0e\x00\x00\x00'
p1841
tp1842
Rp1843
sVFunabashi
p1844
g2
(g6
S'\x01\x00\x00\x00'
p1845
tp1846
Rp1847
sVKawaguchi
p1848
g2
(g6
S'\x03\x00\x00\x00'
p1849
tp1850
Rp1851
sVAbashiri
p1852
g2
(g6
S'\x06\x00\x00\x00'
p1853
tp1854
Rp1855
sVShimotsuke
p1856
g2
(g6
S'\x11\x00\x00\x00'
p1857
tp1858
Rp1859
sVTaishi
p1860
g2
(g6
S'\x12\x00\x00\x00'
p1861
tp1862
Rp1863
sVShimosuwa
p1864
g2
(g6
S'\x0c\x00\x00\x00'
p1865
tp1866
Rp1867
sVShari
p1868
g2
(g6
S'\x0b\x00\x00\x00'
p1869
tp1870
Rp1871
sVKazo
p1872
g2
(g6
S'\x07\x00\x00\x00'
p1873
tp1874
Rp1875
sVSeir\u014d
p1876
g2
(g6
S'\x0e\x00\x00\x00'
p1877
tp1878
Rp1879
sVKanna
p1880
g2
(g6
S'\x0b\x00\x00\x00'
p1881
tp1882
Rp1883
sVIwanai
p1884
g2
(g6
S'\x03\x00\x00\x00'
p1885
tp1886
Rp1887
sVOwariasahi
p1888
g2
(g6
S'\x07\x00\x00\x00'
p1889
tp1890
Rp1891
sVIde
p1892
g2
(g6
S'\x0f\x00\x00\x00'
p1893
tp1894
Rp1895
sVIchikai
p1896
g2
(g6
S'\x05\x00\x00\x00'
p1897
tp1898
Rp1899
sVShiribeshi
p1900
g2
(g6
S'\x13\x00\x00\x00'
p1901
tp1902
Rp1903
sVIchinohe
p1904
g2
(g6
S'\x0e\x00\x00\x00'
p1905
tp1906
Rp1907
sVMinamiuwa
p1908
g2
(g6
S'\t\x00\x00\x00'
p1909
tp1910
Rp1911
sVMinamiechizen
p1912
g2
(g6
S'\x13\x00\x00\x00'
p1913
tp1914
Rp1915
sVJinsekik\u014dgen
p1916
g2
(g6
S'\x05\x00\x00\x00'
p1917
tp1918
Rp1919
sVAridagawa
p1920
g2
(g6
S'\x0b\x00\x00\x00'
p1921
tp1922
Rp1923
sVNakagawa
p1924
g2
(g6
S'\x13\x00\x00\x00'
p1925
tp1926
Rp1927
sVItoshima
p1928
g2
(g6
S'\x04\x00\x00\x00'
p1929
tp1930
Rp1931
sVYahiko
p1932
g2
(g6
S'\x01\x00\x00\x00'
p1933
tp1934
Rp1935
sVKasumigaura
p1936
g2
(g6
S'\t\x00\x00\x00'
p1937
tp1938
Rp1939
sVYamabe
p1940
g2
(g6
S'\x11\x00\x00\x00'
p1941
tp1942
Rp1943
sVTagaj\u014d
p1944
g2
(g6
S'\r\x00\x00\x00'
p1945
tp1946
Rp1947
sVGoj\u014dme
p1948
g2
(g6
S'\t\x00\x00\x00'
p1949
tp1950
Rp1951
sVNishiawakura
p1952
g2
(g6
S'\x13\x00\x00\x00'
p1953
tp1954
Rp1955
sVMinamidait\u014d
p1956
g2
(g6
S'\x06\x00\x00\x00'
p1957
tp1958
Rp1959
sVMinokamo
p1960
g2
(g6
S'\x12\x00\x00\x00'
p1961
tp1962
Rp1963
sVUtashinai
p1964
g2
(g6
S'\x05\x00\x00\x00'
p1965
tp1966
Rp1967
sVWazuka
p1968
g2
(g6
S'\x00\x00\x00\x00'
p1969
tp1970
Rp1971
sVSeki
p1972
g2
(g6
S'\x00\x00\x00\x00'
p1973
tp1974
Rp1975
sVShosanbetsu
p1976
g2
(g6
S'\t\x00\x00\x00'
p1977
tp1978
Rp1979
sVHokota
p1980
g2
(g6
S'\x13\x00\x00\x00'
p1981
tp1982
Rp1983
sVKamikita
p1984
g2
(g6
S'\x12\x00\x00\x00'
p1985
tp1986
Rp1987
sVRausu
p1988
g2
(g6
S'\x06\x00\x00\x00'
p1989
tp1990
Rp1991
sVRy\u016b\u014d
p1992
g2
(g6
S'\x0f\x00\x00\x00'
p1993
tp1994
Rp1995
sVTokigawa
p1996
g2
(g6
S'\x13\x00\x00\x00'
p1997
tp1998
Rp1999
sVNakajima
p2000
g2
(g6
S'\x03\x00\x00\x00'
p2001
tp2002
Rp2003
sVKatori
p2004
g2
(g6
S'\x0e\x00\x00\x00'
p2005
tp2006
Rp2007
sVKonohana
p2008
g2
(g6
S'\x04\x00\x00\x00'
p2009
tp2010
Rp2011
sVFushimi
p2012
g2
(g6
S'\x07\x00\x00\x00'
p2013
tp2014
Rp2015
sVTatsug\u014d
p2016
g2
(g6
S'\x13\x00\x00\x00'
p2017
tp2018
Rp2019
sVKamitakai
p2020
g2
(g6
S'\x0e\x00\x00\x00'
p2021
tp2022
Rp2023
sVMinobu
p2024
g2
(g6
S'\x0f\x00\x00\x00'
p2025
tp2026
Rp2027
sVNishio
p2028
g2
(g6
S'\x00\x00\x00\x00'
p2029
tp2030
Rp2031
sVSarabetsu
p2032
g2
(g6
S'\x02\x00\x00\x00'
p2033
tp2034
Rp2035
sVOshika
p2036
g2
(g6
S'\x10\x00\x00\x00'
p2037
tp2038
Rp2039
sVIzumizaki
p2040
g2
(g6
S'\x13\x00\x00\x00'
p2041
tp2042
Rp2043
sVIwate
p2044
g2
(g6
S'\x0e\x00\x00\x00'
p2045
tp2046
Rp2047
sVNishimorokata
p2048
g2
(g6
S'\x11\x00\x00\x00'
p2049
tp2050
Rp2051
sVInuyama
p2052
g2
(g6
S'\x03\x00\x00\x00'
p2053
tp2054
Rp2055
sVKyonan
p2056
g2
(g6
S'\x01\x00\x00\x00'
p2057
tp2058
Rp2059
sVTakahagi
p2060
g2
(g6
S'\x04\x00\x00\x00'
p2061
tp2062
Rp2063
sVTaragi
p2064
g2
(g6
S'\x06\x00\x00\x00'
p2065
tp2066
Rp2067
sVAga
p2068
g2
(g6
S'\x05\x00\x00\x00'
p2069
tp2070
Rp2071
sVMinamata
p2072
g2
(g6
S'\n\x00\x00\x00'
p2073
tp2074
Rp2075
sVShibukawa
p2076
g2
(g6
S'\x13\x00\x00\x00'
p2077
tp2078
Rp2079
sVMinamioguni
p2080
g2
(g6
S'\x0e\x00\x00\x00'
p2081
tp2082
Rp2083
sVAibetsu
p2084
g2
(g6
S'\x01\x00\x00\x00'
p2085
tp2086
Rp2087
sVHoronobe
p2088
g2
(g6
S'\t\x00\x00\x00'
p2089
tp2090
Rp2091
sVKitanakagusuku
p2092
g2
(g6
S'\x0c\x00\x00\x00'
p2093
tp2094
Rp2095
sVH\u014ddatsushimizu
p2096
g2
(g6
S'\x0f\x00\x00\x00'
p2097
tp2098
Rp2099
sVItsuki
p2100
g2
(g6
S'\x01\x00\x00\x00'
p2101
tp2102
Rp2103
sVKuga
p2104
g2
(g6
S'\x08\x00\x00\x00'
p2105
tp2106
Rp2107
sVKushima
p2108
g2
(g6
S'\x11\x00\x00\x00'
p2109
tp2110
Rp2111
sVOyabe
p2112
g2
(g6
S'\t\x00\x00\x00'
p2113
tp2114
Rp2115
sVMinamiizu
p2116
g2
(g6
S'\x06\x00\x00\x00'
p2117
tp2118
Rp2119
sV\u014cgimi
p2120
g2
(g6
S'\x04\x00\x00\x00'
p2121
tp2122
Rp2123
sVYamanashi
p2124
g2
(g6
S'\n\x00\x00\x00'
p2125
tp2126
Rp2127
sVTsugaru
p2128
g2
(g6
S'\n\x00\x00\x00'
p2129
tp2130
Rp2131
sVTsunan
p2132
g2
(g6
S'\x0e\x00\x00\x00'
p2133
tp2134
Rp2135
sVMotobu
p2136
g2
(g6
S'\x05\x00\x00\x00'
p2137
tp2138
Rp2139
sVNishitama
p2140
g2
(g6
S'\x02\x00\x00\x00'
p2141
tp2142
Rp2143
sVHasuda
p2144
g2
(g6
S'\x0c\x00\x00\x00'
p2145
tp2146
Rp2147
sVHaboro
p2148
g2
(g6
S'\x07\x00\x00\x00'
p2149
tp2150
Rp2151
sVNoda
p2152
g2
(g6
S'\x00\x00\x00\x00'
p2153
tp2154
Rp2155
sVToyoyama
p2156
g2
(g6
S'\x00\x00\x00\x00'
p2157
tp2158
Rp2159
sVUda
p2160
g2
(g6
S'\x0b\x00\x00\x00'
p2161
tp2162
Rp2163
sVOgi
p2164
g2
(g6
S'\x12\x00\x00\x00'
p2165
tp2166
Rp2167
sVOga
p2168
g2
(g6
S'\x04\x00\x00\x00'
p2169
tp2170
Rp2171
sVAsakuchi
p2172
g2
(g6
S'\x10\x00\x00\x00'
p2173
tp2174
Rp2175
sVTakatsu
p2176
g2
(g6
S'\x0c\x00\x00\x00'
p2177
tp2178
Rp2179
sVYanagawa
p2180
g2
(g6
S'\x12\x00\x00\x00'
p2181
tp2182
Rp2183
sVHirokawa
p2184
g2
(g6
S'\x0e\x00\x00\x00'
p2185
tp2186
Rp2187
sVHigashid\u014dri
p2188
g2
(g6
S'\x05\x00\x00\x00'
p2189
tp2190
Rp2191
sVMishima
p2192
g2
(g6
S'\x08\x00\x00\x00'
p2193
tp2194
Rp2195
sVHigashiizu
p2196
g2
(g6
S'\x01\x00\x00\x00'
p2197
tp2198
Rp2199
sVSaga
p2200
g2
(g6
S'\x02\x00\x00\x00'
p2201
tp2202
Rp2203
sVOshamanbe
p2204
g2
(g6
S'\x0e\x00\x00\x00'
p2205
tp2206
Rp2207
sVTsukigata
p2208
g2
(g6
S'\x07\x00\x00\x00'
p2209
tp2210
Rp2211
sVYatsushiro
p2212
g2
(g6
S'\x0c\x00\x00\x00'
p2213
tp2214
Rp2215
sVWanouchi
p2216
g2
(g6
S'\x04\x00\x00\x00'
p2217
tp2218
Rp2219
sVH\u014dfu
p2220
g2
(g6
S'\x04\x00\x00\x00'
p2221
tp2222
Rp2223
sVMii
p2224
g2
(g6
S'\n\x00\x00\x00'
p2225
tp2226
Rp2227
sVMatsue
p2228
g2
(g6
S'\x00\x00\x00\x00'
p2229
tp2230
Rp2231
sVYahatahigashi
p2232
g2
(g6
S'\x0c\x00\x00\x00'
p2233
tp2234
Rp2235
sVIsogo
p2236
g2
(g6
S'\t\x00\x00\x00'
p2237
tp2238
Rp2239
sVTeshikaga
p2240
g2
(g6
S'\x0c\x00\x00\x00'
p2241
tp2242
Rp2243
sVAinan
p2244
g2
(g6
S'\x13\x00\x00\x00'
p2245
tp2246
Rp2247
sVHiraya
p2248
g2
(g6
S'\r\x00\x00\x00'
p2249
tp2250
Rp2251
sVShiga
p2252
g2
(g6
S'\x12\x00\x00\x00'
p2253
tp2254
Rp2255
sVMemuro
p2256
g2
(g6
S'\x11\x00\x00\x00'
p2257
tp2258
Rp2259
sVMimasaka
p2260
g2
(g6
S'\x01\x00\x00\x00'
p2261
tp2262
Rp2263
sVMitaka
p2264
g2
(g6
S'\n\x00\x00\x00'
p2265
tp2266
Rp2267
sVKanmaki
p2268
g2
(g6
S'\x10\x00\x00\x00'
p2269
tp2270
Rp2271
sVMitake
p2272
g2
(g6
S'\x08\x00\x00\x00'
p2273
tp2274
Rp2275
sVHamatonbetsu
p2276
g2
(g6
S'\x00\x00\x00\x00'
p2277
tp2278
Rp2279
sVHigashiibaraki
p2280
g2
(g6
S'\x06\x00\x00\x00'
p2281
tp2282
Rp2283
sVKitaaiki
p2284
g2
(g6
S'\x10\x00\x00\x00'
p2285
tp2286
Rp2287
sVAkiruno
p2288
g2
(g6
S'\x0c\x00\x00\x00'
p2289
tp2290
Rp2291
sVAsaka
p2292
g2
(g6
S'\x01\x00\x00\x00'
p2293
tp2294
Rp2295
sVNagasu
p2296
g2
(g6
S'\t\x00\x00\x00'
p2297
tp2298
Rp2299
sVNiyodogawa
p2300
g2
(g6
S'\x08\x00\x00\x00'
p2301
tp2302
Rp2303
sVNumata
p2304
g2
(g6
S'\x07\x00\x00\x00'
p2305
tp2306
Rp2307
sVHaibara
p2308
g2
(g6
S'\x01\x00\x00\x00'
p2309
tp2310
Rp2311
sVShiraoi
p2312
g2
(g6
S'\x11\x00\x00\x00'
p2313
tp2314
Rp2315
sVHashimoto
p2316
g2
(g6
S'\x12\x00\x00\x00'
p2317
tp2318
Rp2319
sVHamada
p2320
g2
(g6
S'\x10\x00\x00\x00'
p2321
tp2322
Rp2323
sVMachida
p2324
g2
(g6
S'\x11\x00\x00\x00'
p2325
tp2326
Rp2327
sV\u014ctaki
p2328
g2
(g6
S'\x03\x00\x00\x00'
p2329
tp2330
Rp2331
sV\u014ctake
p2332
g2
(g6
S'\x0f\x00\x00\x00'
p2333
tp2334
Rp2335
sVTosu
p2336
g2
(g6
S'\x0c\x00\x00\x00'
p2337
tp2338
Rp2339
sVIzumisano
p2340
g2
(g6
S'\n\x00\x00\x00'
p2341
tp2342
Rp2343
sVHirosaki
p2344
g2
(g6
S'\x03\x00\x00\x00'
p2345
tp2346
Rp2347
sVNishimurayama
p2348
g2
(g6
S'\x12\x00\x00\x00'
p2349
tp2350
Rp2351
sVFukushima
p2352
g2
(g6
S'\x12\x00\x00\x00'
p2353
tp2354
Rp2355
sVTosa
p2356
g2
(g6
S'\x0c\x00\x00\x00'
p2357
tp2358
Rp2359
sVTomigusuku
p2360
g2
(g6
S'\x06\x00\x00\x00'
p2361
tp2362
Rp2363
sVNishig\u014d
p2364
g2
(g6
S'\x05\x00\x00\x00'
p2365
tp2366
Rp2367
sVKawazu
p2368
g2
(g6
S'\x05\x00\x00\x00'
p2369
tp2370
Rp2371
sVShimada
p2372
g2
(g6
S'\x01\x00\x00\x00'
p2373
tp2374
Rp2375
sVShimamaki
p2376
g2
(g6
S'\x01\x00\x00\x00'
p2377
tp2378
Rp2379
sVMaizuru
p2380
g2
(g6
S'\x10\x00\x00\x00'
p2381
tp2382
Rp2383
sV\u014cita
p2384
g2
(g6
S'\x0e\x00\x00\x00'
p2385
tp2386
Rp2387
sVHichis\u014d
p2388
g2
(g6
S'\x10\x00\x00\x00'
p2389
tp2390
Rp2391
sVTokachi
p2392
g2
(g6
S'\x04\x00\x00\x00'
p2393
tp2394
Rp2395
sVKama
p2396
g2
(g6
S'\x11\x00\x00\x00'
p2397
tp2398
Rp2399
sVTamakawa
p2400
g2
(g6
S'\x0e\x00\x00\x00'
p2401
tp2402
Rp2403
sVKami
p2404
g2
(g6
S'\x13\x00\x00\x00'
p2405
tp2406
Rp2407
sVKamo
p2408
g2
(g6
S'\r\x00\x00\x00'
p2409
tp2410
Rp2411
sVKakamigahara
p2412
g2
(g6
S'\x04\x00\x00\x00'
p2413
tp2414
Rp2415
sVMiyakonoj\u014d
p2416
g2
(g6
S'\x07\x00\x00\x00'
p2417
tp2418
Rp2419
sVSaiwai
p2420
g2
(g6
S'\x0c\x00\x00\x00'
p2421
tp2422
Rp2423
sVY\u016bbari
p2424
g2
(g6
S'\x05\x00\x00\x00'
p2425
tp2426
Rp2427
sVKoga
p2428
g2
(g6
S'\x11\x00\x00\x00'
p2429
tp2430
Rp2431
sVKitamorokata
p2432
g2
(g6
S'\x00\x00\x00\x00'
p2433
tp2434
Rp2435
sVChikushi
p2436
g2
(g6
S'\t\x00\x00\x00'
p2437
tp2438
Rp2439
sVInashiki
p2440
g2
(g6
S'\x05\x00\x00\x00'
p2441
tp2442
Rp2443
sVIbusuki
p2444
g2
(g6
S'\x01\x00\x00\x00'
p2445
tp2446
Rp2447
sV\u014cme
p2448
g2
(g6
S'\x0b\x00\x00\x00'
p2449
tp2450
Rp2451
sVWassamu
p2452
g2
(g6
S'\x12\x00\x00\x00'
p2453
tp2454
Rp2455
sVShibushi
p2456
g2
(g6
S'\x05\x00\x00\x00'
p2457
tp2458
Rp2459
sVYazu
p2460
g2
(g6
S'\r\x00\x00\x00'
p2461
tp2462
Rp2463
sVKumagaya
p2464
g2
(g6
S'\x0f\x00\x00\x00'
p2465
tp2466
Rp2467
sVMinamitane
p2468
g2
(g6
S'\x05\x00\x00\x00'
p2469
tp2470
Rp2471
sVSuzuka
p2472
g2
(g6
S'\x0b\x00\x00\x00'
p2473
tp2474
Rp2475
sVChitose
p2476
g2
(g6
S'\x00\x00\x00\x00'
p2477
tp2478
Rp2479
sV\u014carai
p2480
g2
(g6
S'\x12\x00\x00\x00'
p2481
tp2482
Rp2483
sVMifune
p2484
g2
(g6
S'\x05\x00\x00\x00'
p2485
tp2486
Rp2487
sVMeguro
p2488
g2
(g6
S'\t\x00\x00\x00'
p2489
tp2490
Rp2491
sVKy\u014dtanba
p2492
g2
(g6
S'\x10\x00\x00\x00'
p2493
tp2494
Rp2495
sVIijima
p2496
g2
(g6
S'\x13\x00\x00\x00'
p2497
tp2498
Rp2499
sVT\u014dg\u014d
p2500
g2
(g6
S'\x05\x00\x00\x00'
p2501
tp2502
Rp2503
sVMidori
p2504
g2
(g6
S'\x13\x00\x00\x00'
p2505
tp2506
Rp2507
sVHanamaki
p2508
g2
(g6
S'\x0b\x00\x00\x00'
p2509
tp2510
Rp2511
sVKij\u014d
p2512
g2
(g6
S'\x01\x00\x00\x00'
p2513
tp2514
Rp2515
sVKawai
p2516
g2
(g6
S'\x11\x00\x00\x00'
p2517
tp2518
Rp2519
sVT\u014dbetsu
p2520
g2
(g6
S'\x08\x00\x00\x00'
p2521
tp2522
Rp2523
sVSakawa
p2524
g2
(g6
S'\x0b\x00\x00\x00'
p2525
tp2526
Rp2527
sV\u014cta
p2528
g2
(g6
S'\x12\x00\x00\x00'
p2529
tp2530
Rp2531
sVMatsumoto
p2532
g2
(g6
S'\x0c\x00\x00\x00'
p2533
tp2534
Rp2535
sVKasugai
p2536
g2
(g6
S'\x10\x00\x00\x00'
p2537
tp2538
Rp2539
sVSasebo
p2540
g2
(g6
S'\x06\x00\x00\x00'
p2541
tp2542
Rp2543
sVTarumi
p2544
g2
(g6
S'\r\x00\x00\x00'
p2545
tp2546
Rp2547
sVYao
p2548
g2
(g6
S'\x0c\x00\x00\x00'
p2549
tp2550
Rp2551
sVSh\u016bchi
p2552
g2
(g6
S'\x05\x00\x00\x00'
p2553
tp2554
Rp2555
sVShiriuchi
p2556
g2
(g6
S'\x06\x00\x00\x00'
p2557
tp2558
Rp2559
sVKasaoka
p2560
g2
(g6
S'\t\x00\x00\x00'
p2561
tp2562
Rp2563
sVUchiko
p2564
g2
(g6
S'\x03\x00\x00\x00'
p2565
tp2566
Rp2567
sVMiyoshi
p2568
g2
(g6
S'\t\x00\x00\x00'
p2569
tp2570
Rp2571
sVMiyagi
p2572
g2
(g6
S'\x02\x00\x00\x00'
p2573
tp2574
Rp2575
sVAsaminami
p2576
g2
(g6
S'\x11\x00\x00\x00'
p2577
tp2578
Rp2579
sVMotosu
p2580
g2
(g6
S'\x07\x00\x00\x00'
p2581
tp2582
Rp2583
sVTaiji
p2584
g2
(g6
S'\x11\x00\x00\x00'
p2585
tp2586
Rp2587
sVArita
p2588
g2
(g6
S'\n\x00\x00\x00'
p2589
tp2590
Rp2591
sVDate
p2592
g2
(g6
S'\x06\x00\x00\x00'
p2593
tp2594
Rp2595
sVShakotan
p2596
g2
(g6
S'\x10\x00\x00\x00'
p2597
tp2598
Rp2599
sVSarufutsu
p2600
g2
(g6
S'\x06\x00\x00\x00'
p2601
tp2602
Rp2603
sVTateyama
p2604
g2
(g6
S'\x04\x00\x00\x00'
p2605
tp2606
Rp2607
sVKozagawa
p2608
g2
(g6
S'\x05\x00\x00\x00'
p2609
tp2610
Rp2611
sVKure
p2612
g2
(g6
S'\x04\x00\x00\x00'
p2613
tp2614
Rp2615
sV\u014cizumi
p2616
g2
(g6
S'\x07\x00\x00\x00'
p2617
tp2618
Rp2619
sVFunahashi
p2620
g2
(g6
S'\x02\x00\x00\x00'
p2621
tp2622
Rp2623
sVKaminoyama
p2624
g2
(g6
S'\x08\x00\x00\x00'
p2625
tp2626
Rp2627
sV\u014cnan
p2628
g2
(g6
S'\x0c\x00\x00\x00'
p2629
tp2630
Rp2631
sVIwamizawa
p2632
g2
(g6
S'\x02\x00\x00\x00'
p2633
tp2634
Rp2635
sVKy\u014dto
p2636
g2
(g6
S'\x00\x00\x00\x00'
p2637
tp2638
Rp2639
sVKasama
p2640
g2
(g6
S'\x11\x00\x00\x00'
p2641
tp2642
Rp2643
sVShimoniikawa
p2644
g2
(g6
S'\x03\x00\x00\x00'
p2645
tp2646
Rp2647
sVTondabayashi
p2648
g2
(g6
S'\x12\x00\x00\x00'
p2649
tp2650
Rp2651
sV\u014cmihachiman
p2652
g2
(g6
S'\t\x00\x00\x00'
p2653
tp2654
Rp2655
sVIwase
p2656
g2
(g6
S'\x0b\x00\x00\x00'
p2657
tp2658
Rp2659
sVYawata
p2660
g2
(g6
S'\x10\x00\x00\x00'
p2661
tp2662
Rp2663
sVItayanagi
p2664
g2
(g6
S'\x0f\x00\x00\x00'
p2665
tp2666
Rp2667
sVFukutsu
p2668
g2
(g6
S'\t\x00\x00\x00'
p2669
tp2670
Rp2671
sVHigashimatsushima
p2672
g2
(g6
S'\x0c\x00\x00\x00'
p2673
tp2674
Rp2675
sVKamiichi
p2676
g2
(g6
S'\t\x00\x00\x00'
p2677
tp2678
Rp2679
sVTama
p2680
g2
(g6
S'\x10\x00\x00\x00'
p2681
tp2682
Rp2683
sVSanbu
p2684
g2
(g6
S'\x11\x00\x00\x00'
p2685
tp2686
Rp2687
sVK\u014dry\u014d
p2688
g2
(g6
S'\x04\x00\x00\x00'
p2689
tp2690
Rp2691
sVYame
p2692
g2
(g6
S'\x11\x00\x00\x00'
p2693
tp2694
Rp2695
sVMinamitsuru
p2696
g2
(g6
S'\t\x00\x00\x00'
p2697
tp2698
Rp2699
sVYama
p2700
g2
(g6
S'\x01\x00\x00\x00'
p2701
tp2702
Rp2703
sVTsubata
p2704
g2
(g6
S'\x03\x00\x00\x00'
p2705
tp2706
Rp2707
sVKamiamakusa
p2708
g2
(g6
S'\r\x00\x00\x00'
p2709
tp2710
Rp2711
sVHikawa
p2712
g2
(g6
S'\x06\x00\x00\x00'
p2713
tp2714
Rp2715
sVMatsubushi
p2716
g2
(g6
S'\x05\x00\x00\x00'
p2717
tp2718
Rp2719
sVYodogawa
p2720
g2
(g6
S'\x13\x00\x00\x00'
p2721
tp2722
Rp2723
sVMinami\u014dsumi
p2724
g2
(g6
S'\x0c\x00\x00\x00'
p2725
tp2726
Rp2727
sVYoron
p2728
g2
(g6
S'\x06\x00\x00\x00'
p2729
tp2730
Rp2731
sVTakaichi
p2732
g2
(g6
S'\x02\x00\x00\x00'
p2733
tp2734
Rp2735
sVTanabe
p2736
g2
(g6
S'\x08\x00\x00\x00'
p2737
tp2738
Rp2739
sVMisaki
p2740
g2
(g6
S'\x0f\x00\x00\x00'
p2741
tp2742
Rp2743
sVH\u014dsu
p2744
g2
(g6
S'\x08\x00\x00\x00'
p2745
tp2746
Rp2747
sVKibich\u016b\u014d
p2748
g2
(g6
S'\x0b\x00\x00\x00'
p2749
tp2750
Rp2751
sVHigashiyamato
p2752
g2
(g6
S'\n\x00\x00\x00'
p2753
tp2754
Rp2755
sVIbaraki
p2756
g2
(g6
S'\x03\x00\x00\x00'
p2757
tp2758
Rp2759
sVSumoto
p2760
g2
(g6
S'\x0b\x00\x00\x00'
p2761
tp2762
Rp2763
sVAgatsuma
p2764
g2
(g6
S'\n\x00\x00\x00'
p2765
tp2766
Rp2767
sVTaihaku
p2768
g2
(g6
S'\x10\x00\x00\x00'
p2769
tp2770
Rp2771
sVK\u014dsa
p2772
g2
(g6
S'\x04\x00\x00\x00'
p2773
tp2774
Rp2775
sVHigashimuro
p2776
g2
(g6
S'\x02\x00\x00\x00'
p2777
tp2778
Rp2779
sVHitachi\u014dmiya
p2780
g2
(g6
S'\n\x00\x00\x00'
p2781
tp2782
Rp2783
sVIshigaki
p2784
g2
(g6
S'\x0c\x00\x00\x00'
p2785
tp2786
Rp2787
sVSakura
p2788
g2
(g6
S'\n\x00\x00\x00'
p2789
tp2790
Rp2791
sVSettsu
p2792
g2
(g6
S'\x07\x00\x00\x00'
p2793
tp2794
Rp2795
sVT\u014dhoku
p2796
g2
(g6
S'\x05\x00\x00\x00'
p2797
tp2798
Rp2799
sVNakatsu
p2800
g2
(g6
S'\x13\x00\x00\x00'
p2801
tp2802
Rp2803
sVS\u014dsa
p2804
g2
(g6
S'\x07\x00\x00\x00'
p2805
tp2806
Rp2807
sVMima
p2808
g2
(g6
S'\x06\x00\x00\x00'
p2809
tp2810
Rp2811
sVSekikawa
p2812
g2
(g6
S'\x06\x00\x00\x00'
p2813
tp2814
Rp2815
sVK\u014dchi
p2816
g2
(g6
S'\r\x00\x00\x00'
p2817
tp2818
Rp2819
sVYura
p2820
g2
(g6
S'\x11\x00\x00\x00'
p2821
tp2822
Rp2823
sVNishiwaki
p2824
g2
(g6
S'\x0c\x00\x00\x00'
p2825
tp2826
Rp2827
sV\u014ckura
p2828
g2
(g6
S'\x0e\x00\x00\x00'
p2829
tp2830
Rp2831
sVKokonoe
p2832
g2
(g6
S'\x0c\x00\x00\x00'
p2833
tp2834
Rp2835
sVHonbetsu
p2836
g2
(g6
S'\x12\x00\x00\x00'
p2837
tp2838
Rp2839
sVShimog\u014d
p2840
g2
(g6
S'\x12\x00\x00\x00'
p2841
tp2842
Rp2843
sVNishiokoppe
p2844
g2
(g6
S'\x13\x00\x00\x00'
p2845
tp2846
Rp2847
sVNichinan
p2848
g2
(g6
S'\x12\x00\x00\x00'
p2849
tp2850
Rp2851
sVNagara
p2852
g2
(g6
S'\x07\x00\x00\x00'
p2853
tp2854
Rp2855
sVTakanabe
p2856
g2
(g6
S'\x13\x00\x00\x00'
p2857
tp2858
Rp2859
sV\u014csakikamijima
p2860
g2
(g6
S'\x12\x00\x00\x00'
p2861
tp2862
Rp2863
sV\u014ctsu
p2864
g2
(g6
S'\x02\x00\x00\x00'
p2865
tp2866
Rp2867
sVYamamoto
p2868
g2
(g6
S'\x12\x00\x00\x00'
p2869
tp2870
Rp2871
sVMurata
p2872
g2
(g6
S'\x10\x00\x00\x00'
p2873
tp2874
Rp2875
sVHakone
p2876
g2
(g6
S'\x05\x00\x00\x00'
p2877
tp2878
Rp2879
sVTanohata
p2880
g2
(g6
S'\x04\x00\x00\x00'
p2881
tp2882
Rp2883
sV\u014cgaki
p2884
g2
(g6
S'\x00\x00\x00\x00'
p2885
tp2886
Rp2887
sVHy\u016bga
p2888
g2
(g6
S'\r\x00\x00\x00'
p2889
tp2890
Rp2891
sVKamogawa
p2892
g2
(g6
S'\n\x00\x00\x00'
p2893
tp2894
Rp2895
sVT\u014dhaku
p2896
g2
(g6
S'\x0b\x00\x00\x00'
p2897
tp2898
Rp2899
sVHirakawa
p2900
g2
(g6
S'\x03\x00\x00\x00'
p2901
tp2902
Rp2903
sVChikusei
p2904
g2
(g6
S'\x02\x00\x00\x00'
p2905
tp2906
Rp2907
sVHonj\u014d
p2908
g2
(g6
S'\x05\x00\x00\x00'
p2909
tp2910
Rp2911
sVTenkawa
p2912
g2
(g6
S'\x0c\x00\x00\x00'
p2913
tp2914
Rp2915
sVIsen
p2916
g2
(g6
S'\x05\x00\x00\x00'
p2917
tp2918
Rp2919
sVAwa
p2920
g2
(g6
S'\r\x00\x00\x00'
p2921
tp2922
Rp2923
sVNagareyama
p2924
g2
(g6
S'\n\x00\x00\x00'
p2925
tp2926
Rp2927
sVErimo
p2928
g2
(g6
S'\n\x00\x00\x00'
p2929
tp2930
Rp2931
sVChiisagata
p2932
g2
(g6
S'\x02\x00\x00\x00'
p2933
tp2934
Rp2935
sVAnj\u014d
p2936
g2
(g6
S'\x06\x00\x00\x00'
p2937
tp2938
Rp2939
sVOda
p2940
g2
(g6
S'\x02\x00\x00\x00'
p2941
tp2942
Rp2943
sVSay\u014d
p2944
g2
(g6
S'\x02\x00\x00\x00'
p2945
tp2946
Rp2947
sVTomakomai
p2948
g2
(g6
S'\x0b\x00\x00\x00'
p2949
tp2950
Rp2951
sVNaka
p2952
g2
(g6
S'\r\x00\x00\x00'
p2953
tp2954
Rp2955
sVKani
p2956
g2
(g6
S'\x11\x00\x00\x00'
p2957
tp2958
Rp2959
sVEtajima
p2960
g2
(g6
S'\x0b\x00\x00\x00'
p2961
tp2962
Rp2963
sVYamanakako
p2964
g2
(g6
S'\x01\x00\x00\x00'
p2965
tp2966
Rp2967
sVMinamiky\u016bsh\u016b
p2968
g2
(g6
S'\x00\x00\x00\x00'
p2969
tp2970
Rp2971
sVShimogy\u014d
p2972
g2
(g6
S'\x05\x00\x00\x00'
p2973
tp2974
Rp2975
sVOgachi
p2976
g2
(g6
S'\x11\x00\x00\x00'
p2977
tp2978
Rp2979
sVAkune
p2980
g2
(g6
S'\x13\x00\x00\x00'
p2981
tp2982
Rp2983
sVNeba
p2984
g2
(g6
S'\x07\x00\x00\x00'
p2985
tp2986
Rp2987
sVKawakita
p2988
g2
(g6
S'\x00\x00\x00\x00'
p2989
tp2990
Rp2991
sVTakamori
p2992
g2
(g6
S'\r\x00\x00\x00'
p2993
tp2994
Rp2995
sV\u014ciso
p2996
g2
(g6
S'\x02\x00\x00\x00'
p2997
tp2998
Rp2999
sVY\u016bki
p3000
g2
(g6
S'\r\x00\x00\x00'
p3001
tp3002
Rp3003
sVKitakanbara
p3004
g2
(g6
S'\x05\x00\x00\x00'
p3005
tp3006
Rp3007
sVHigashitsugaru
p3008
g2
(g6
S'\x05\x00\x00\x00'
p3009
tp3010
Rp3011
sVKanagawa
p3012
g2
(g6
S'\x03\x00\x00\x00'
p3013
tp3014
Rp3015
sVHachimantai
p3016
g2
(g6
S'\x10\x00\x00\x00'
p3017
tp3018
Rp3019
sVNoto
p3020
g2
(g6
S'\x02\x00\x00\x00'
p3021
tp3022
Rp3023
sVAwashimaura
p3024
g2
(g6
S'\x07\x00\x00\x00'
p3025
tp3026
Rp3027
sVOirase
p3028
g2
(g6
S'\x0b\x00\x00\x00'
p3029
tp3030
Rp3031
sVItoda
p3032
g2
(g6
S'\x13\x00\x00\x00'
p3033
tp3034
Rp3035
sVYurihonj\u014d
p3036
g2
(g6
S'\x12\x00\x00\x00'
p3037
tp3038
Rp3039
sVKawagoe
p3040
g2
(g6
S'\x10\x00\x00\x00'
p3041
tp3042
Rp3043
sVNiseko
p3044
g2
(g6
S'\x12\x00\x00\x00'
p3045
tp3046
Rp3047
sVHigashikushira
p3048
g2
(g6
S'\x11\x00\x00\x00'
p3049
tp3050
Rp3051
sVHabikino
p3052
g2
(g6
S'\x07\x00\x00\x00'
p3053
tp3054
Rp3055
sV\u014cji
p3056
g2
(g6
S'\x01\x00\x00\x00'
p3057
tp3058
Rp3059
sVYosano
p3060
g2
(g6
S'\x0f\x00\x00\x00'
p3061
tp3062
Rp3063
sVSukagawa
p3064
g2
(g6
S'\x07\x00\x00\x00'
p3065
tp3066
Rp3067
sVSawa
p3068
g2
(g6
S'\x0e\x00\x00\x00'
p3069
tp3070
Rp3071
sVChita
p3072
g2
(g6
S'\x07\x00\x00\x00'
p3073
tp3074
Rp3075
sVAyase
p3076
g2
(g6
S'\x10\x00\x00\x00'
p3077
tp3078
Rp3079
sVTsuru
p3080
g2
(g6
S'\x0c\x00\x00\x00'
p3081
tp3082
Rp3083
sVRikuzentakata
p3084
g2
(g6
S'\x08\x00\x00\x00'
p3085
tp3086
Rp3087
sVAmagasaki
p3088
g2
(g6
S'\x11\x00\x00\x00'
p3089
tp3090
Rp3091
sVYamada
p3092
g2
(g6
S'\r\x00\x00\x00'
p3093
tp3094
Rp3095
sVTanagura
p3096
g2
(g6
S'\x12\x00\x00\x00'
p3097
tp3098
Rp3099
sVKawauchi
p3100
g2
(g6
S'\x06\x00\x00\x00'
p3101
tp3102
Rp3103
sVSaiki
p3104
g2
(g6
S'\x0c\x00\x00\x00'
p3105
tp3106
Rp3107
sVKomae
p3108
g2
(g6
S'\x01\x00\x00\x00'
p3109
tp3110
Rp3111
sVAira
p3112
g2
(g6
S'\n\x00\x00\x00'
p3113
tp3114
Rp3115
sVMiyamae
p3116
g2
(g6
S'\x01\x00\x00\x00'
p3117
tp3118
Rp3119
sVSaka
p3120
g2
(g6
S'\x06\x00\x00\x00'
p3121
tp3122
Rp3123
sVNagoya
p3124
g2
(g6
S'\x0c\x00\x00\x00'
p3125
tp3126
Rp3127
sVBuzen
p3128
g2
(g6
S'\x10\x00\x00\x00'
p3129
tp3130
Rp3131
sVKuroshio
p3132
g2
(g6
S'\x01\x00\x00\x00'
p3133
tp3134
Rp3135
sVHirano
p3136
g2
(g6
S'\x13\x00\x00\x00'
p3137
tp3138
Rp3139
sVFurubira
p3140
g2
(g6
S'\x0f\x00\x00\x00'
p3141
tp3142
Rp3143
sVTomisato
p3144
g2
(g6
S'\x06\x00\x00\x00'
p3145
tp3146
Rp3147
sVSaku
p3148
g2
(g6
S'\x0e\x00\x00\x00'
p3149
tp3150
Rp3151
sVKiyosato
p3152
g2
(g6
S'\x11\x00\x00\x00'
p3153
tp3154
Rp3155
sVT\u014dkamachi
p3156
g2
(g6
S'\x02\x00\x00\x00'
p3157
tp3158
Rp3159
sVChikugo
p3160
g2
(g6
S'\n\x00\x00\x00'
p3161
tp3162
Rp3163
sVRitt\u014d
p3164
g2
(g6
S'\x01\x00\x00\x00'
p3165
tp3166
Rp3167
sVChippubetsu
p3168
g2
(g6
S'\x08\x00\x00\x00'
p3169
tp3170
Rp3171
sVNanbu
p3172
g2
(g6
S'\x02\x00\x00\x00'
p3173
tp3174
Rp3175
sVUbe
p3176
g2
(g6
S'\x07\x00\x00\x00'
p3177
tp3178
Rp3179
sVKanazawa
p3180
g2
(g6
S'\x02\x00\x00\x00'
p3181
tp3182
Rp3183
sVK\u014dzaki
p3184
g2
(g6
S'\x03\x00\x00\x00'
p3185
tp3186
Rp3187
sVFuefuki
p3188
g2
(g6
S'\x12\x00\x00\x00'
p3189
tp3190
Rp3191
sVMiyota
p3192
g2
(g6
S'\x06\x00\x00\x00'
p3193
tp3194
Rp3195
sVToyota
p3196
g2
(g6
S'\x0c\x00\x00\x00'
p3197
tp3198
Rp3199
sVHigashikagawa
p3200
g2
(g6
S'\x10\x00\x00\x00'
p3201
tp3202
Rp3203
sVInba
p3204
g2
(g6
S'\x00\x00\x00\x00'
p3205
tp3206
Rp3207
sVMatsuyama
p3208
g2
(g6
S'\x11\x00\x00\x00'
p3209
tp3210
Rp3211
sVHigashikunisaki
p3212
g2
(g6
S'\x0f\x00\x00\x00'
p3213
tp3214
Rp3215
sVMotegi
p3216
g2
(g6
S'\x0f\x00\x00\x00'
p3217
tp3218
Rp3219
sVKurobe
p3220
g2
(g6
S'\x00\x00\x00\x00'
p3221
tp3222
Rp3223
sVAida
p3224
g2
(g6
S'\x06\x00\x00\x00'
p3225
tp3226
Rp3227
sVUbuyama
p3228
g2
(g6
S'\x03\x00\x00\x00'
p3229
tp3230
Rp3231
sVHirono
p3232
g2
(g6
S'\x13\x00\x00\x00'
p3233
tp3234
Rp3235
sVSaky\u014d
p3236
g2
(g6
S'\t\x00\x00\x00'
p3237
tp3238
Rp3239
sVIe
p3240
g2
(g6
S'\x0c\x00\x00\x00'
p3241
tp3242
Rp3243
sVIkawa
p3244
g2
(g6
S'\t\x00\x00\x00'
p3245
tp3246
Rp3247
sVJ\u014ds\u014d
p3248
g2
(g6
S'\x03\x00\x00\x00'
p3249
tp3250
Rp3251
sVSaij\u014d
p3252
g2
(g6
S'\x07\x00\x00\x00'
p3253
tp3254
Rp3255
sVYonaguni
p3256
g2
(g6
S'\x00\x00\x00\x00'
p3257
tp3258
Rp3259
sVAbeno
p3260
g2
(g6
S'\x11\x00\x00\x00'
p3261
tp3262
Rp3263
sV\u014cnuma
p3264
g2
(g6
S'\x0c\x00\x00\x00'
p3265
tp3266
Rp3267
sVNishiyodogawa
p3268
g2
(g6
S'\x05\x00\x00\x00'
p3269
tp3270
Rp3271
sVKanoya
p3272
g2
(g6
S'\x11\x00\x00\x00'
p3273
tp3274
Rp3275
sVFutaba
p3276
g2
(g6
S'\x0f\x00\x00\x00'
p3277
tp3278
Rp3279
sVYukuhashi
p3280
g2
(g6
S'\x0f\x00\x00\x00'
p3281
tp3282
Rp3283
sVAisai
p3284
g2
(g6
S'\x05\x00\x00\x00'
p3285
tp3286
Rp3287
sVFukaya
p3288
g2
(g6
S'\x0c\x00\x00\x00'
p3289
tp3290
Rp3291
sVAnamizu
p3292
g2
(g6
S'\x11\x00\x00\x00'
p3293
tp3294
Rp3295
sVNumazu
p3296
g2
(g6
S'\x13\x00\x00\x00'
p3297
tp3298
Rp3299
sVKuse
p3300
g2
(g6
S'\x05\x00\x00\x00'
p3301
tp3302
Rp3303
sVNihonmatsu
p3304
g2
(g6
S'\x11\x00\x00\x00'
p3305
tp3306
Rp3307
sVUeno
p3308
g2
(g6
S'\x02\x00\x00\x00'
p3309
tp3310
Rp3311
sVHany\u016b
p3312
g2
(g6
S'\t\x00\x00\x00'
p3313
tp3314
Rp3315
sVTakasaki
p3316
g2
(g6
S'\x0e\x00\x00\x00'
p3317
tp3318
Rp3319
sVMinamikanbara
p3320
g2
(g6
S'\x07\x00\x00\x00'
p3321
tp3322
Rp3323
sVShiwa
p3324
g2
(g6
S'\x0b\x00\x00\x00'
p3325
tp3326
Rp3327
sVKumage
p3328
g2
(g6
S'\x07\x00\x00\x00'
p3329
tp3330
Rp3331
sVGotenba
p3332
g2
(g6
S'\x02\x00\x00\x00'
p3333
tp3334
Rp3335
sVKanegasaki
p3336
g2
(g6
S'\x00\x00\x00\x00'
p3337
tp3338
Rp3339
sVKitakami
p3340
g2
(g6
S'\x11\x00\x00\x00'
p3341
tp3342
Rp3343
sVNishinoomote
p3344
g2
(g6
S'\t\x00\x00\x00'
p3345
tp3346
Rp3347
sVKamig\u014dri
p3348
g2
(g6
S'\x06\x00\x00\x00'
p3349
tp3350
Rp3351
sVKomatsushima
p3352
g2
(g6
S'\r\x00\x00\x00'
p3353
tp3354
Rp3355
sVHitachi
p3356
g2
(g6
S'\x01\x00\x00\x00'
p3357
tp3358
Rp3359
sVIshikari
p3360
g2
(g6
S'\n\x00\x00\x00'
p3361
tp3362
Rp3363
sVKamikitayama
p3364
g2
(g6
S'\n\x00\x00\x00'
p3365
tp3366
Rp3367
sVIchikikushikino
p3368
g2
(g6
S'\t\x00\x00\x00'
p3369
tp3370
Rp3371
sVNan'y\u014d
p3372
g2
(g6
S'\x00\x00\x00\x00'
p3373
tp3374
Rp3375
sVKagamino
p3376
g2
(g6
S'\x06\x00\x00\x00'
p3377
tp3378
Rp3379
sVHayakawa
p3380
g2
(g6
S'\x01\x00\x00\x00'
p3381
tp3382
Rp3383
sVMusashino
p3384
g2
(g6
S'\x00\x00\x00\x00'
p3385
tp3386
Rp3387
sVYatomi
p3388
g2
(g6
S'\x03\x00\x00\x00'
p3389
tp3390
Rp3391
sVSakurai
p3392
g2
(g6
S'\x0f\x00\x00\x00'
p3393
tp3394
Rp3395
sVSusono
p3396
g2
(g6
S'\x0c\x00\x00\x00'
p3397
tp3398
Rp3399
sVYokoze
p3400
g2
(g6
S'\x0f\x00\x00\x00'
p3401
tp3402
Rp3403
sVSatosh\u014d
p3404
g2
(g6
S'\x0e\x00\x00\x00'
p3405
tp3406
Rp3407
sVTarui
p3408
g2
(g6
S'\x04\x00\x00\x00'
p3409
tp3410
Rp3411
sVKaruizawa
p3412
g2
(g6
S'\x0b\x00\x00\x00'
p3413
tp3414
Rp3415
sVSamegawa
p3416
g2
(g6
S'\r\x00\x00\x00'
p3417
tp3418
Rp3419
sVKusu
p3420
g2
(g6
S'\r\x00\x00\x00'
p3421
tp3422
Rp3423
sVMinamimatsuura
p3424
g2
(g6
S'\x01\x00\x00\x00'
p3425
tp3426
Rp3427
sVAkumi
p3428
g2
(g6
S'\x01\x00\x00\x00'
p3429
tp3430
Rp3431
sVWake
p3432
g2
(g6
S'\x13\x00\x00\x00'
p3433
tp3434
Rp3435
sVNishimatsuura
p3436
g2
(g6
S'\x00\x00\x00\x00'
p3437
tp3438
Rp3439
sVWaki
p3440
g2
(g6
S'\t\x00\x00\x00'
p3441
tp3442
Rp3443
sVAtsuma
p3444
g2
(g6
S'\x11\x00\x00\x00'
p3445
tp3446
Rp3447
sVKamimine
p3448
g2
(g6
S'\x02\x00\x00\x00'
p3449
tp3450
Rp3451
sVZama
p3452
g2
(g6
S'\x0b\x00\x00\x00'
p3453
tp3454
Rp3455
sVOkoppe
p3456
g2
(g6
S'\x05\x00\x00\x00'
p3457
tp3458
Rp3459
sVHino
p3460
g2
(g6
S'\x05\x00\x00\x00'
p3461
tp3462
Rp3463
sVAmakusa
p3464
g2
(g6
S'\x03\x00\x00\x00'
p3465
tp3466
Rp3467
sVGamag\u014dri
p3468
g2
(g6
S'\n\x00\x00\x00'
p3469
tp3470
Rp3471
sVNanto
p3472
g2
(g6
S'\x10\x00\x00\x00'
p3473
tp3474
Rp3475
sVTotsuka
p3476
g2
(g6
S'\x02\x00\x00\x00'
p3477
tp3478
Rp3479
sVKiyama
p3480
g2
(g6
S'\r\x00\x00\x00'
p3481
tp3482
Rp3483
sVKasamatsu
p3484
g2
(g6
S'\x05\x00\x00\x00'
p3485
tp3486
Rp3487
sV\u014ctsuchi
p3488
g2
(g6
S'\t\x00\x00\x00'
p3489
tp3490
Rp3491
sVNankan
p3492
g2
(g6
S'\x11\x00\x00\x00'
p3493
tp3494
Rp3495
sVKosuge
p3496
g2
(g6
S'\x10\x00\x00\x00'
p3497
tp3498
Rp3499
sVAwaji
p3500
g2
(g6
S'\x10\x00\x00\x00'
p3501
tp3502
Rp3503
sVShimoda
p3504
g2
(g6
S'\x05\x00\x00\x00'
p3505
tp3506
Rp3507
sV\u014cki
p3508
g2
(g6
S'\x03\x00\x00\x00'
p3509
tp3510
Rp3511
sVIkaruga
p3512
g2
(g6
S'\x0f\x00\x00\x00'
p3513
tp3514
Rp3515
sVNagahama
p3516
g2
(g6
S'\x0c\x00\x00\x00'
p3517
tp3518
Rp3519
sVYoshinogari
p3520
g2
(g6
S'\x10\x00\x00\x00'
p3521
tp3522
Rp3523
sVSagae
p3524
g2
(g6
S'\x00\x00\x00\x00'
p3525
tp3526
Rp3527
sVMinamikawachi
p3528
g2
(g6
S'\x05\x00\x00\x00'
p3529
tp3530
Rp3531
sVHachi\u014dji
p3532
g2
(g6
S'\n\x00\x00\x00'
p3533
tp3534
Rp3535
sVKashiwa
p3536
g2
(g6
S'\x05\x00\x00\x00'
p3537
tp3538
Rp3539
sVKaratsu
p3540
g2
(g6
S'\x12\x00\x00\x00'
p3541
tp3542
Rp3543
sVCh\u014dfu
p3544
g2
(g6
S'\x06\x00\x00\x00'
p3545
tp3546
Rp3547
sVSabae
p3548
g2
(g6
S'\x00\x00\x00\x00'
p3549
tp3550
Rp3551
sVYamatok\u014driyama
p3552
g2
(g6
S'\t\x00\x00\x00'
p3553
tp3554
Rp3555
sVObama
p3556
g2
(g6
S'\x0e\x00\x00\x00'
p3557
tp3558
Rp3559
sVUtsunomiya
p3560
g2
(g6
S'\x02\x00\x00\x00'
p3561
tp3562
Rp3563
sV\u014cyodo
p3564
g2
(g6
S'\x10\x00\x00\x00'
p3565
tp3566
Rp3567
sVTajiri
p3568
g2
(g6
S'\x12\x00\x00\x00'
p3569
tp3570
Rp3571
sVMobara
p3572
g2
(g6
S'\n\x00\x00\x00'
p3573
tp3574
Rp3575
sVSodegaura
p3576
g2
(g6
S'\t\x00\x00\x00'
p3577
tp3578
Rp3579
sVMizunami
p3580
g2
(g6
S'\x0e\x00\x00\x00'
p3581
tp3582
Rp3583
sVKitakatsuragi
p3584
g2
(g6
S'\x06\x00\x00\x00'
p3585
tp3586
Rp3587
sVSaito
p3588
g2
(g6
S'\x03\x00\x00\x00'
p3589
tp3590
Rp3591
sVIida
p3592
g2
(g6
S'\x0f\x00\x00\x00'
p3593
tp3594
Rp3595
sVIide
p3596
g2
(g6
S'\x13\x00\x00\x00'
p3597
tp3598
Rp3599
sVHirakata
p3600
g2
(g6
S'\x12\x00\x00\x00'
p3601
tp3602
Rp3603
sVNakashibetsu
p3604
g2
(g6
S'\x01\x00\x00\x00'
p3605
tp3606
Rp3607
sVMikatakaminaka
p3608
g2
(g6
S'\x0c\x00\x00\x00'
p3609
tp3610
Rp3611
sVMogami
p3612
g2
(g6
S'\x02\x00\x00\x00'
p3613
tp3614
Rp3615
sVChichibu
p3616
g2
(g6
S'\x0f\x00\x00\x00'
p3617
tp3618
Rp3619
sVTochigi
p3620
g2
(g6
S'\x0c\x00\x00\x00'
p3621
tp3622
Rp3623
sVK\u014dya
p3624
g2
(g6
S'\x0e\x00\x00\x00'
p3625
tp3626
Rp3627
sVMukawa
p3628
g2
(g6
S'\x07\x00\x00\x00'
p3629
tp3630
Rp3631
sVWak\u014d
p3632
g2
(g6
S'\r\x00\x00\x00'
p3633
tp3634
Rp3635
sVAmagi
p3636
g2
(g6
S'\x13\x00\x00\x00'
p3637
tp3638
Rp3639
sVMakubetsu
p3640
g2
(g6
S'\x0b\x00\x00\x00'
p3641
tp3642
Rp3643
sVMinamiakita
p3644
g2
(g6
S'\x10\x00\x00\x00'
p3645
tp3646
Rp3647
sVYachimata
p3648
g2
(g6
S'\t\x00\x00\x00'
p3649
tp3650
Rp3651
sVSaza
p3652
g2
(g6
S'\x02\x00\x00\x00'
p3653
tp3654
Rp3655
sVYahatanishi
p3656
g2
(g6
S'\x12\x00\x00\x00'
p3657
tp3658
Rp3659
sVSuma
p3660
g2
(g6
S'\r\x00\x00\x00'
p3661
tp3662
Rp3663
sVKagamiishi
p3664
g2
(g6
S'\x01\x00\x00\x00'
p3665
tp3666
Rp3667
sVNinohe
p3668
g2
(g6
S'\x05\x00\x00\x00'
p3669
tp3670
Rp3671
sVNose
p3672
g2
(g6
S'\x0f\x00\x00\x00'
p3673
tp3674
Rp3675
sVSera
p3676
g2
(g6
S'\x13\x00\x00\x00'
p3677
tp3678
Rp3679
sVUmaji
p3680
g2
(g6
S'\x04\x00\x00\x00'
p3681
tp3682
Rp3683
sVKakogawa
p3684
g2
(g6
S'\x12\x00\x00\x00'
p3685
tp3686
Rp3687
sVKurotaki
p3688
g2
(g6
S'\x05\x00\x00\x00'
p3689
tp3690
Rp3691
sVTakikawa
p3692
g2
(g6
S'\x12\x00\x00\x00'
p3693
tp3694
Rp3695
sVAzumino
p3696
g2
(g6
S'\x13\x00\x00\x00'
p3697
tp3698
Rp3699
sVTottori
p3700
g2
(g6
S'\t\x00\x00\x00'
p3701
tp3702
Rp3703
sVHigashiura
p3704
g2
(g6
S'\x08\x00\x00\x00'
p3705
tp3706
Rp3707
sVTaku
p3708
g2
(g6
S'\r\x00\x00\x00'
p3709
tp3710
Rp3711
sVAyabe
p3712
g2
(g6
S'\r\x00\x00\x00'
p3713
tp3714
Rp3715
sVTaka
p3716
g2
(g6
S'\x03\x00\x00\x00'
p3717
tp3718
Rp3719
sVWarabi
p3720
g2
(g6
S'\x0f\x00\x00\x00'
p3721
tp3722
Rp3723
sVHayami
p3724
g2
(g6
S'\x06\x00\x00\x00'
p3725
tp3726
Rp3727
sVTaki
p3728
g2
(g6
S'\x0c\x00\x00\x00'
p3729
tp3730
Rp3731
sVMonbetsu
p3732
g2
(g6
S'\x11\x00\x00\x00'
p3733
tp3734
Rp3735
sVTosashimizu
p3736
g2
(g6
S'\x07\x00\x00\x00'
p3737
tp3738
Rp3739
sVHayama
p3740
g2
(g6
S'\x10\x00\x00\x00'
p3741
tp3742
Rp3743
sVIchikawa
p3744
g2
(g6
S'\t\x00\x00\x00'
p3745
tp3746
Rp3747
sVK\u014dka
p3748
g2
(g6
S'\x03\x00\x00\x00'
p3749
tp3750
Rp3751
sVIwami
p3752
g2
(g6
S'\x0c\x00\x00\x00'
p3753
tp3754
Rp3755
sVAkiha
p3756
g2
(g6
S'\x0e\x00\x00\x00'
p3757
tp3758
Rp3759
sVArakawa
p3760
g2
(g6
S'\x13\x00\x00\x00'
p3761
tp3762
Rp3763
sVMiyako
p3764
g2
(g6
S'\x0e\x00\x00\x00'
p3765
tp3766
Rp3767
sVFunagata
p3768
g2
(g6
S'\x07\x00\x00\x00'
p3769
tp3770
Rp3771
sVHakusan
p3772
g2
(g6
S'\x00\x00\x00\x00'
p3773
tp3774
Rp3775
sVMiyake
p3776
g2
(g6
S'\x0e\x00\x00\x00'
p3777
tp3778
Rp3779
sVIzunokuni
p3780
g2
(g6
S'\r\x00\x00\x00'
p3781
tp3782
Rp3783
sVT\u014dei
p3784
g2
(g6
S'\x00\x00\x00\x00'
p3785
tp3786
Rp3787
sVHakuba
p3788
g2
(g6
S'\x0b\x00\x00\x00'
p3789
tp3790
Rp3791
sVMinamib\u014ds\u014d
p3792
g2
(g6
S'\x01\x00\x00\x00'
p3793
tp3794
Rp3795
sVAssabu
p3796
g2
(g6
S'\x12\x00\x00\x00'
p3797
tp3798
Rp3799
sVTobe
p3800
g2
(g6
S'\t\x00\x00\x00'
p3801
tp3802
Rp3803
sVToba
p3804
g2
(g6
S'\x01\x00\x00\x00'
p3805
tp3806
Rp3807
sVUry\u016b
p3808
g2
(g6
S'\x06\x00\x00\x00'
p3809
tp3810
Rp3811
sVInage
p3812
g2
(g6
S'\x08\x00\x00\x00'
p3813
tp3814
Rp3815
sVInagi
p3816
g2
(g6
S'\x06\x00\x00\x00'
p3817
tp3818
Rp3819
sVFunai
p3820
g2
(g6
S'\t\x00\x00\x00'
p3821
tp3822
Rp3823
sVBifuka
p3824
g2
(g6
S'\x06\x00\x00\x00'
p3825
tp3826
Rp3827
sVNakama
p3828
g2
(g6
S'\x04\x00\x00\x00'
p3829
tp3830
Rp3831
sVEiheiji
p3832
g2
(g6
S'\x0b\x00\x00\x00'
p3833
tp3834
Rp3835
sVTakamatsu
p3836
g2
(g6
S'\x10\x00\x00\x00'
p3837
tp3838
Rp3839
sVObihiro
p3840
g2
(g6
S'\x10\x00\x00\x00'
p3841
tp3842
Rp3843
sVTsu
p3844
g2
(g6
S'\x08\x00\x00\x00'
p3845
tp3846
Rp3847
sVKamimashiki
p3848
g2
(g6
S'\x03\x00\x00\x00'
p3849
tp3850
Rp3851
sVNy\u016bzen
p3852
g2
(g6
S'\x13\x00\x00\x00'
p3853
tp3854
Rp3855
sVTakayama
p3856
g2
(g6
S'\x11\x00\x00\x00'
p3857
tp3858
Rp3859
sVS\u014dma
p3860
g2
(g6
S'\n\x00\x00\x00'
p3861
tp3862
Rp3863
sVTakaoka
p3864
g2
(g6
S'\x13\x00\x00\x00'
p3865
tp3866
Rp3867
sVToyotomi
p3868
g2
(g6
S'\x01\x00\x00\x00'
p3869
tp3870
Rp3871
sVNishimera
p3872
g2
(g6
S'\n\x00\x00\x00'
p3873
tp3874
Rp3875
sVNamie
p3876
g2
(g6
S'\x12\x00\x00\x00'
p3877
tp3878
Rp3879
sVShimominochi
p3880
g2
(g6
S'\t\x00\x00\x00'
p3881
tp3882
Rp3883
sVNagata
p3884
g2
(g6
S'\x11\x00\x00\x00'
p3885
tp3886
Rp3887
sVKikugawa
p3888
g2
(g6
S'\x04\x00\x00\x00'
p3889
tp3890
Rp3891
sVKitamuro
p3892
g2
(g6
S'\x0c\x00\x00\x00'
p3893
tp3894
Rp3895
sVWadomari
p3896
g2
(g6
S'\x11\x00\x00\x00'
p3897
tp3898
Rp3899
sVEngaru
p3900
g2
(g6
S'\x12\x00\x00\x00'
p3901
tp3902
Rp3903
sVNagato
p3904
g2
(g6
S'\r\x00\x00\x00'
p3905
tp3906
Rp3907
sVKenbuchi
p3908
g2
(g6
S'\x0e\x00\x00\x00'
p3909
tp3910
Rp3911
sVAk\u014d
p3912
g2
(g6
S'\x0f\x00\x00\x00'
p3913
tp3914
Rp3915
sVShirako
p3916
g2
(g6
S'\x0b\x00\x00\x00'
p3917
tp3918
Rp3919
sVMisawa
p3920
g2
(g6
S'\x11\x00\x00\x00'
p3921
tp3922
Rp3923
sVKitagawa
p3924
g2
(g6
S'\n\x00\x00\x00'
p3925
tp3926
Rp3927
sV\u014ct\u014d
p3928
g2
(g6
S'\x08\x00\x00\x00'
p3929
tp3930
Rp3931
sVBeppu
p3932
g2
(g6
S'\x0f\x00\x00\x00'
p3933
tp3934
Rp3935
sVK\u014driyama
p3936
g2
(g6
S'\x07\x00\x00\x00'
p3937
tp3938
Rp3939
sVMinamiaiki
p3940
g2
(g6
S'\x00\x00\x00\x00'
p3941
tp3942
Rp3943
sVShimomashiki
p3944
g2
(g6
S'\x0c\x00\x00\x00'
p3945
tp3946
Rp3947
sVShinkamigot\u014d
p3948
g2
(g6
S'\x0e\x00\x00\x00'
p3949
tp3950
Rp3951
sVHanishina
p3952
g2
(g6
S'\r\x00\x00\x00'
p3953
tp3954
Rp3955
sV\u014czu
p3956
g2
(g6
S'\x00\x00\x00\x00'
p3957
tp3958
Rp3959
sVKoyu
p3960
g2
(g6
S'\x02\x00\x00\x00'
p3961
tp3962
Rp3963
sVKitaakita
p3964
g2
(g6
S'\x0b\x00\x00\x00'
p3965
tp3966
Rp3967
sVAyagawa
p3968
g2
(g6
S'\x02\x00\x00\x00'
p3969
tp3970
Rp3971
sVKamoenai
p3972
g2
(g6
S'\t\x00\x00\x00'
p3973
tp3974
Rp3975
sVNanae
p3976
g2
(g6
S'\x05\x00\x00\x00'
p3977
tp3978
Rp3979
sVIchihara
p3980
g2
(g6
S'\x07\x00\x00\x00'
p3981
tp3982
Rp3983
sVTsuruta
p3984
g2
(g6
S'\x01\x00\x00\x00'
p3985
tp3986
Rp3987
sVTajimi
p3988
g2
(g6
S'\x01\x00\x00\x00'
p3989
tp3990
Rp3991
sVNanao
p3992
g2
(g6
S'\x0c\x00\x00\x00'
p3993
tp3994
Rp3995
sVKuromatsunai
p3996
g2
(g6
S'\x01\x00\x00\x00'
p3997
tp3998
Rp3999
sVKasuga
p4000
g2
(g6
S'\t\x00\x00\x00'
p4001
tp4002
Rp4003
sVYamato
p4004
g2
(g6
S'\x01\x00\x00\x00'
p4005
tp4006
Rp4007
sVObira
p4008
g2
(g6
S'\x02\x00\x00\x00'
p4009
tp4010
Rp4011
sVHinode
p4012
g2
(g6
S'\x11\x00\x00\x00'
p4013
tp4014
Rp4015
sVAkabira
p4016
g2
(g6
S'\x08\x00\x00\x00'
p4017
tp4018
Rp4019
sVYamatotakada
p4020
g2
(g6
S'\x04\x00\x00\x00'
p4021
tp4022
Rp4023
sVShinano
p4024
g2
(g6
S'\x12\x00\x00\x00'
p4025
tp4026
Rp4027
sVNishinari
p4028
g2
(g6
S'\x01\x00\x00\x00'
p4029
tp4030
Rp4031
sVIno
p4032
g2
(g6
S'\x13\x00\x00\x00'
p4033
tp4034
Rp4035
sVYoshida
p4036
g2
(g6
S'\x06\x00\x00\x00'
p4037
tp4038
Rp4039
sVInami
p4040
g2
(g6
S'\x05\x00\x00\x00'
p4041
tp4042
Rp4043
sVIne
p4044
g2
(g6
S'\x0e\x00\x00\x00'
p4045
tp4046
Rp4047
sVIna
p4048
g2
(g6
S'\x11\x00\x00\x00'
p4049
tp4050
Rp4051
sVKesennuma
p4052
g2
(g6
S'\x02\x00\x00\x00'
p4053
tp4054
Rp4055
sVShirosato
p4056
g2
(g6
S'\x08\x00\x00\x00'
p4057
tp4058
Rp4059
sVKagawa
p4060
g2
(g6
S'\x07\x00\x00\x00'
p4061
tp4062
Rp4063
sVKume
p4064
g2
(g6
S'\x02\x00\x00\x00'
p4065
tp4066
Rp4067
sVKuma
p4068
g2
(g6
S'\n\x00\x00\x00'
p4069
tp4070
Rp4071
sVShichikashuku
p4072
g2
(g6
S'\x13\x00\x00\x00'
p4073
tp4074
Rp4075
sVHigashichichibu
p4076
g2
(g6
S'\x0c\x00\x00\x00'
p4077
tp4078
Rp4079
sVG\u014dtsu
p4080
g2
(g6
S'\x03\x00\x00\x00'
p4081
tp4082
Rp4083
sVGinan
p4084
g2
(g6
S'\x0f\x00\x00\x00'
p4085
tp4086
Rp4087
sVTaketa
p4088
g2
(g6
S'\x04\x00\x00\x00'
p4089
tp4090
Rp4091
sVHigashimurayama
p4092
g2
(g6
S'\x0f\x00\x00\x00'
p4093
tp4094
Rp4095
sVTainai
p4096
g2
(g6
S'\n\x00\x00\x00'
p4097
tp4098
Rp4099
sVOtoineppu
p4100
g2
(g6
S'\x12\x00\x00\x00'
p4101
tp4102
Rp4103
sVHanawa
p4104
g2
(g6
S'\t\x00\x00\x00'
p4105
tp4106
Rp4107
sVAki
p4108
g2
(g6
S'\x12\x00\x00\x00'
p4109
tp4110
Rp4111
sVAka
p4112
g2
(g6
S'\x03\x00\x00\x00'
p4113
tp4114
Rp4115
sVImizu
p4116
g2
(g6
S'\x07\x00\x00\x00'
p4117
tp4118
Rp4119
sVKarumai
p4120
g2
(g6
S'\x0e\x00\x00\x00'
p4121
tp4122
Rp4123
sVTawaramoto
p4124
g2
(g6
S'\x06\x00\x00\x00'
p4125
tp4126
Rp4127
sVToyonaka
p4128
g2
(g6
S'\x12\x00\x00\x00'
p4129
tp4130
Rp4131
sVHachinohe
p4132
g2
(g6
S'\x03\x00\x00\x00'
p4133
tp4134
Rp4135
sVOgawa
p4136
g2
(g6
S'\x01\x00\x00\x00'
p4137
tp4138
Rp4139
sVBiratori
p4140
g2
(g6
S'\x13\x00\x00\x00'
p4141
tp4142
Rp4143
sVT\u014dda
p4144
g2
(g6
S'\x0c\x00\x00\x00'
p4145
tp4146
Rp4147
sVBungo\u014dno
p4148
g2
(g6
S'\x10\x00\x00\x00'
p4149
tp4150
Rp4151
sV\u014ctoyo
p4152
g2
(g6
S'\x0e\x00\x00\x00'
p4153
tp4154
Rp4155
sVTakasu
p4156
g2
(g6
S'\x08\x00\x00\x00'
p4157
tp4158
Rp4159
sVUnzen
p4160
g2
(g6
S'\x0c\x00\x00\x00'
p4161
tp4162
Rp4163
sVMiyawaka
p4164
g2
(g6
S'\x00\x00\x00\x00'
p4165
tp4166
Rp4167
sVKitas\u014dma
p4168
g2
(g6
S'\r\x00\x00\x00'
p4169
tp4170
Rp4171
sVMiharu
p4172
g2
(g6
S'\x04\x00\x00\x00'
p4173
tp4174
Rp4175
sVG\u014ddo
p4176
g2
(g6
S'\x05\x00\x00\x00'
p4177
tp4178
Rp4179
sVMihara
p4180
g2
(g6
S'\x10\x00\x00\x00'
p4181
tp4182
Rp4183
sVMatsuda
p4184
g2
(g6
S'\x01\x00\x00\x00'
p4185
tp4186
Rp4187
sVTeine
p4188
g2
(g6
S'\x03\x00\x00\x00'
p4189
tp4190
Rp4191
sVMatsudo
p4192
g2
(g6
S'\x02\x00\x00\x00'
p4193
tp4194
Rp4195
sVMamurogawa
p4196
g2
(g6
S'\x06\x00\x00\x00'
p4197
tp4198
Rp4199
sVKakegawa
p4200
g2
(g6
S'\x03\x00\x00\x00'
p4201
tp4202
Rp4203
sVHigashine
p4204
g2
(g6
S'\x13\x00\x00\x00'
p4205
tp4206
Rp4207
sVIsawa
p4208
g2
(g6
S'\x04\x00\x00\x00'
p4209
tp4210
Rp4211
sVCh\u016b\u014d
p4212
g2
(g6
S'\n\x00\x00\x00'
p4213
tp4214
Rp4215
sVKuriyama
p4216
g2
(g6
S'\x13\x00\x00\x00'
p4217
tp4218
Rp4219
sVBandai
p4220
g2
(g6
S'\t\x00\x00\x00'
p4221
tp4222
Rp4223
sVHimi
p4224
g2
(g6
S'\x06\x00\x00\x00'
p4225
tp4226
Rp4227
sVK\u014dza
p4228
g2
(g6
S'\t\x00\x00\x00'
p4229
tp4230
Rp4231
sVSatte
p4232
g2
(g6
S'\x00\x00\x00\x00'
p4233
tp4234
Rp4235
sVSekigahara
p4236
g2
(g6
S'\x13\x00\x00\x00'
p4237
tp4238
Rp4239
sVKameyama
p4240
g2
(g6
S'\r\x00\x00\x00'
p4241
tp4242
Rp4243
sVMiyazu
p4244
g2
(g6
S'\x0e\x00\x00\x00'
p4245
tp4246
Rp4247
sVHigashimorokata
p4248
g2
(g6
S'\x0b\x00\x00\x00'
p4249
tp4250
Rp4251
sVFujimino
p4252
g2
(g6
S'\x07\x00\x00\x00'
p4253
tp4254
Rp4255
sVTakahama
p4256
g2
(g6
S'\x02\x00\x00\x00'
p4257
tp4258
Rp4259
sVImadate
p4260
g2
(g6
S'\x02\x00\x00\x00'
p4261
tp4262
Rp4263
sVSusaki
p4264
g2
(g6
S'\x01\x00\x00\x00'
p4265
tp4266
Rp4267
sVEna
p4268
g2
(g6
S'\x05\x00\x00\x00'
p4269
tp4270
Rp4271
sVHigashi
p4272
g2
(g6
S'\n\x00\x00\x00'
p4273
tp4274
Rp4275
sVNakagami
p4276
g2
(g6
S'\t\x00\x00\x00'
p4277
tp4278
Rp4279
sVImabetsu
p4280
g2
(g6
S'\x07\x00\x00\x00'
p4281
tp4282
Rp4283
sVKunitomi
p4284
g2
(g6
S'\x11\x00\x00\x00'
p4285
tp4286
Rp4287
sVMori
p4288
g2
(g6
S'\x02\x00\x00\x00'
p4289
tp4290
Rp4291
sVKitamurayama
p4292
g2
(g6
S'\x10\x00\x00\x00'
p4293
tp4294
Rp4295
sVK\u014dfu
p4296
g2
(g6
S'\x03\x00\x00\x00'
p4297
tp4298
Rp4299
sVNasukarasuyama
p4300
g2
(g6
S'\x10\x00\x00\x00'
p4301
tp4302
Rp4303
sVKasukabe
p4304
g2
(g6
S'\x0e\x00\x00\x00'
p4305
tp4306
Rp4307
sVTamano
p4308
g2
(g6
S'\x06\x00\x00\x00'
p4309
tp4310
Rp4311
sVMitsuke
p4312
g2
(g6
S'\x0c\x00\x00\x00'
p4313
tp4314
Rp4315
sVShimoj\u014d
p4316
g2
(g6
S'\t\x00\x00\x00'
p4317
tp4318
Rp4319
sVTatsuko
p4320
g2
(g6
S'\x13\x00\x00\x00'
p4321
tp4322
Rp4323
sV\u014cguchi
p4324
g2
(g6
S'\x0b\x00\x00\x00'
p4325
tp4326
Rp4327
sVOmi
p4328
g2
(g6
S'\x02\x00\x00\x00'
p4329
tp4330
Rp4331
sVNagawa
p4332
g2
(g6
S'\x00\x00\x00\x00'
p4333
tp4334
Rp4335
sVTamana
p4336
g2
(g6
S'\x03\x00\x00\x00'
p4337
tp4338
Rp4339
sVMisato
p4340
g2
(g6
S'\x07\x00\x00\x00'
p4341
tp4342
Rp4343
sVChikusa
p4344
g2
(g6
S'\x04\x00\x00\x00'
p4345
tp4346
Rp4347
sVMinamimaki
p4348
g2
(g6
S'\x07\x00\x00\x00'
p4349
tp4350
Rp4351
sVHitachinaka
p4352
g2
(g6
S'\n\x00\x00\x00'
p4353
tp4354
Rp4355
sVMotoyama
p4356
g2
(g6
S'\x00\x00\x00\x00'
p4357
tp4358
Rp4359
sVIburi
p4360
g2
(g6
S'\x07\x00\x00\x00'
p4361
tp4362
Rp4363
sVNasushiobara
p4364
g2
(g6
S'\x05\x00\x00\x00'
p4365
tp4366
Rp4367
sVOkuizumo
p4368
g2
(g6
S'\x04\x00\x00\x00'
p4369
tp4370
Rp4371
sVKitatsuru
p4372
g2
(g6
S'\x0e\x00\x00\x00'
p4373
tp4374
Rp4375
sVNakijin
p4376
g2
(g6
S'\x0b\x00\x00\x00'
p4377
tp4378
Rp4379
sVTakizawa
p4380
g2
(g6
S'\r\x00\x00\x00'
p4381
tp4382
Rp4383
sVKoshimizu
p4384
g2
(g6
S'\r\x00\x00\x00'
p4385
tp4386
Rp4387
sVIwakura
p4388
g2
(g6
S'\x0b\x00\x00\x00'
p4389
tp4390
Rp4391
sVMinamiminowa
p4392
g2
(g6
S'\t\x00\x00\x00'
p4393
tp4394
Rp4395
sVKamakura
p4396
g2
(g6
S'\x00\x00\x00\x00'
p4397
tp4398
Rp4399
sVN\u014dgata
p4400
g2
(g6
S'\x0e\x00\x00\x00'
p4401
tp4402
Rp4403
sVK\u014dta
p4404
g2
(g6
S'\x13\x00\x00\x00'
p4405
tp4406
Rp4407
sVChikushino
p4408
g2
(g6
S'\x0f\x00\x00\x00'
p4409
tp4410
Rp4411
sVTakaishi
p4412
g2
(g6
S'\x12\x00\x00\x00'
p4413
tp4414
Rp4415
sVAnan
p4416
g2
(g6
S'\x06\x00\x00\x00'
p4417
tp4418
Rp4419
sVGuj\u014d
p4420
g2
(g6
S'\x03\x00\x00\x00'
p4421
tp4422
Rp4423
sVKamisato
p4424
g2
(g6
S'\r\x00\x00\x00'
p4425
tp4426
Rp4427
sVNishiaizu
p4428
g2
(g6
S'\x0e\x00\x00\x00'
p4429
tp4430
Rp4431
sVTakagi
p4432
g2
(g6
S'\x0b\x00\x00\x00'
p4433
tp4434
Rp4435
sVTenn\u014dji
p4436
g2
(g6
S'\x05\x00\x00\x00'
p4437
tp4438
Rp4439
sVNikk\u014d
p4440
g2
(g6
S'\x11\x00\x00\x00'
p4441
tp4442
Rp4443
sVShibetoro
p4444
g2
(g6
S'\x10\x00\x00\x00'
p4445
tp4446
Rp4447
sVNagasaki
p4448
g2
(g6
S'\n\x00\x00\x00'
p4449
tp4450
Rp4451
sVSuruga
p4452
g2
(g6
S'\n\x00\x00\x00'
p4453
tp4454
Rp4455
sVNagayo
p4456
g2
(g6
S'\x07\x00\x00\x00'
p4457
tp4458
Rp4459
sVNonoichi
p4460
g2
(g6
S'\x0f\x00\x00\x00'
p4461
tp4462
Rp4463
sVFuch\u016b
p4464
g2
(g6
S'\r\x00\x00\x00'
p4465
tp4466
Rp4467
sVNishimuro
p4468
g2
(g6
S'\x06\x00\x00\x00'
p4469
tp4470
Rp4471
sVNaniwa
p4472
g2
(g6
S'\x04\x00\x00\x00'
p4473
tp4474
Rp4475
sVShichigahama
p4476
g2
(g6
S'\x0f\x00\x00\x00'
p4477
tp4478
Rp4479
sV\u014cgawara
p4480
g2
(g6
S'\x13\x00\x00\x00'
p4481
tp4482
Rp4483
sVWakuya
p4484
g2
(g6
S'\x0c\x00\x00\x00'
p4485
tp4486
Rp4487
sVOnagawa
p4488
g2
(g6
S'\r\x00\x00\x00'
p4489
tp4490
Rp4491
sVPippu
p4492
g2
(g6
S'\r\x00\x00\x00'
p4493
tp4494
Rp4495
sVNishikanbara
p4496
g2
(g6
S'\r\x00\x00\x00'
p4497
tp4498
Rp4499
sVKisarazu
p4500
g2
(g6
S'\x03\x00\x00\x00'
p4501
tp4502
Rp4503
sVKawachi
p4504
g2
(g6
S'\x06\x00\x00\x00'
p4505
tp4506
Rp4507
sVSorachi
p4508
g2
(g6
S'\x10\x00\x00\x00'
p4509
tp4510
Rp4511
sVOyama
p4512
g2
(g6
S'\x13\x00\x00\x00'
p4513
tp4514
Rp4515
sVKariya
p4516
g2
(g6
S'\x05\x00\x00\x00'
p4517
tp4518
Rp4519
sVYamatsuri
p4520
g2
(g6
S'\t\x00\x00\x00'
p4521
tp4522
Rp4523
sVNaruto
p4524
g2
(g6
S'\x08\x00\x00\x00'
p4525
tp4526
Rp4527
sVNishikasugai
p4528
g2
(g6
S'\x12\x00\x00\x00'
p4529
tp4530
Rp4531
sVAsuka
p4532
g2
(g6
S'\x03\x00\x00\x00'
p4533
tp4534
Rp4535
sVYamaga
p4536
g2
(g6
S'\x02\x00\x00\x00'
p4537
tp4538
Rp4539
sVHannan
p4540
g2
(g6
S'\x05\x00\x00\x00'
p4541
tp4542
Rp4543
sVKin
p4544
g2
(g6
S'\n\x00\x00\x00'
p4545
tp4546
Rp4547
sVKatagami
p4548
g2
(g6
S'\x0b\x00\x00\x00'
p4549
tp4550
Rp4551
sVMinowa
p4552
g2
(g6
S'\x04\x00\x00\x00'
p4553
tp4554
Rp4555
sVUrawa
p4556
g2
(g6
S'\x05\x00\x00\x00'
p4557
tp4558
Rp4559
sVJ\u014dnan
p4560
g2
(g6
S'\x13\x00\x00\x00'
p4561
tp4562
Rp4563
sVTsushima
p4564
g2
(g6
S'\x07\x00\x00\x00'
p4565
tp4566
Rp4567
sVAki\u014dta
p4568
g2
(g6
S'\x07\x00\x00\x00'
p4569
tp4570
Rp4571
sVNakatsugaru
p4572
g2
(g6
S'\x0b\x00\x00\x00'
p4573
tp4574
Rp4575
sVKiyota
p4576
g2
(g6
S'\x04\x00\x00\x00'
p4577
tp4578
Rp4579
sVNirasaki
p4580
g2
(g6
S'\x11\x00\x00\x00'
p4581
tp4582
Rp4583
sVK\u014dt\u014d
p4584
g2
(g6
S'\x05\x00\x00\x00'
p4585
tp4586
Rp4587
sVIsa
p4588
g2
(g6
S'\r\x00\x00\x00'
p4589
tp4590
Rp4591
sV\u014ckawa
p4592
g2
(g6
S'\x11\x00\x00\x00'
p4593
tp4594
Rp4595
sVIse
p4596
g2
(g6
S'\x06\x00\x00\x00'
p4597
tp4598
Rp4599
sVFukui
p4600
g2
(g6
S'\x0c\x00\x00\x00'
p4601
tp4602
Rp4603
sVNishinoshima
p4604
g2
(g6
S'\x06\x00\x00\x00'
p4605
tp4606
Rp4607
sVTakaharu
p4608
g2
(g6
S'\t\x00\x00\x00'
p4609
tp4610
Rp4611
sVSendai
p4612
g2
(g6
S'\r\x00\x00\x00'
p4613
tp4614
Rp4615
sVReihoku
p4616
g2
(g6
S'\x12\x00\x00\x00'
p4617
tp4618
Rp4619
sVSetagaya
p4620
g2
(g6
S'\x05\x00\x00\x00'
p4621
tp4622
Rp4623
sVKitajima
p4624
g2
(g6
S'\r\x00\x00\x00'
p4625
tp4626
Rp4627
sVSakaki
p4628
g2
(g6
S'\x13\x00\x00\x00'
p4629
tp4630
Rp4631
sVGot\u014d
p4632
g2
(g6
S'\x13\x00\x00\x00'
p4633
tp4634
Rp4635
sVHigashichikuma
p4636
g2
(g6
S'\x13\x00\x00\x00'
p4637
tp4638
Rp4639
sVKawamoto
p4640
g2
(g6
S'\x13\x00\x00\x00'
p4641
tp4642
Rp4643
sVSuita
p4644
g2
(g6
S'\x0f\x00\x00\x00'
p4645
tp4646
Rp4647
sVHidakagawa
p4648
g2
(g6
S'\x0e\x00\x00\x00'
p4649
tp4650
Rp4651
sVTadami
p4652
g2
(g6
S'\r\x00\x00\x00'
p4653
tp4654
Rp4655
sVZamami
p4656
g2
(g6
S'\x06\x00\x00\x00'
p4657
tp4658
Rp4659
sVEdogawa
p4660
g2
(g6
S'\t\x00\x00\x00'
p4661
tp4662
Rp4663
sVSanmu
p4664
g2
(g6
S'\x00\x00\x00\x00'
p4665
tp4666
Rp4667
sVIwata
p4668
g2
(g6
S'\x0e\x00\x00\x00'
p4669
tp4670
Rp4671
sVFukuchiyama
p4672
g2
(g6
S'\x0f\x00\x00\x00'
p4673
tp4674
Rp4675
sVKomaki
p4676
g2
(g6
S'\x0e\x00\x00\x00'
p4677
tp4678
Rp4679
sVTokorozawa
p4680
g2
(g6
S'\x07\x00\x00\x00'
p4681
tp4682
Rp4683
sVMorotsuka
p4684
g2
(g6
S'\x13\x00\x00\x00'
p4685
tp4686
Rp4687
sVMinamisaku
p4688
g2
(g6
S'\x11\x00\x00\x00'
p4689
tp4690
Rp4691
sVHokkaid\u014d
p4692
g2
(g6
S'\n\x00\x00\x00'
p4693
tp4694
Rp4695
sVMatsukawa
p4696
g2
(g6
S'\x0e\x00\x00\x00'
p4697
tp4698
Rp4699
sV\u014csaka
p4700
g2
(g6
S'\x01\x00\x00\x00'
p4701
tp4702
Rp4703
sVBunky\u014d
p4704
g2
(g6
S'\x13\x00\x00\x00'
p4705
tp4706
Rp4707
sVYonezawa
p4708
g2
(g6
S'\x02\x00\x00\x00'
p4709
tp4710
Rp4711
sVOmaezaki
p4712
g2
(g6
S'\x10\x00\x00\x00'
p4713
tp4714
Rp4715
sVNomi
p4716
g2
(g6
S'\x06\x00\x00\x00'
p4717
tp4718
Rp4719
sVKanra
p4720
g2
(g6
S'\x0e\x00\x00\x00'
p4721
tp4722
Rp4723
sVMiyashiro
p4724
g2
(g6
S'\x05\x00\x00\x00'
p4725
tp4726
Rp4727
sVUmi
p4728
g2
(g6
S'\x0f\x00\x00\x00'
p4729
tp4730
Rp4731
sVIwaki
p4732
g2
(g6
S'\n\x00\x00\x00'
p4733
tp4734
Rp4735
sVUrausu
p4736
g2
(g6
S'\n\x00\x00\x00'
p4737
tp4738
Rp4739
sVNishisonogi
p4740
g2
(g6
S'\x13\x00\x00\x00'
p4741
tp4742
Rp4743
sVSoni
p4744
g2
(g6
S'\x13\x00\x00\x00'
p4745
tp4746
Rp4747
sVKannami
p4748
g2
(g6
S'\x0f\x00\x00\x00'
p4749
tp4750
Rp4751
sVKurume
p4752
g2
(g6
S'\x12\x00\x00\x00'
p4753
tp4754
Rp4755
sVNishiiwai
p4756
g2
(g6
S'\x0e\x00\x00\x00'
p4757
tp4758
Rp4759
sVIshikawa
p4760
g2
(g6
S'\x01\x00\x00\x00'
p4761
tp4762
Rp4763
sVKawanishi
p4764
g2
(g6
S'\t\x00\x00\x00'
p4765
tp4766
Rp4767
sVTsurui
p4768
g2
(g6
S'\x03\x00\x00\x00'
p4769
tp4770
Rp4771
sVUjitawara
p4772
g2
(g6
S'\x11\x00\x00\x00'
p4773
tp4774
Rp4775
sVMann\u014d
p4776
g2
(g6
S'\x08\x00\x00\x00'
p4777
tp4778
Rp4779
sVIzumi
p4780
g2
(g6
S'\x02\x00\x00\x00'
p4781
tp4782
Rp4783
sVMiyama
p4784
g2
(g6
S'\x10\x00\x00\x00'
p4785
tp4786
Rp4787
sVTagami
p4788
g2
(g6
S'\x13\x00\x00\x00'
p4789
tp4790
Rp4791
sVSano
p4792
g2
(g6
S'\x02\x00\x00\x00'
p4793
tp4794
Rp4795
sVIsahaya
p4796
g2
(g6
S'\t\x00\x00\x00'
p4797
tp4798
Rp4799
sVKitayama
p4800
g2
(g6
S'\n\x00\x00\x00'
p4801
tp4802
Rp4803
sVKuroishi
p4804
g2
(g6
S'\x13\x00\x00\x00'
p4805
tp4806
Rp4807
sVAsagiri
p4808
g2
(g6
S'\x10\x00\x00\x00'
p4809
tp4810
Rp4811
sVIzumo
p4812
g2
(g6
S'\x0f\x00\x00\x00'
p4813
tp4814
Rp4815
sVGob\u014d
p4816
g2
(g6
S'\x0f\x00\x00\x00'
p4817
tp4818
Rp4819
sVHara
p4820
g2
(g6
S'\x07\x00\x00\x00'
p4821
tp4822
Rp4823
sVRishiri
p4824
g2
(g6
S'\x13\x00\x00\x00'
p4825
tp4826
Rp4827
sVHigashihiroshima
p4828
g2
(g6
S'\x11\x00\x00\x00'
p4829
tp4830
Rp4831
sVShimotsuma
p4832
g2
(g6
S'\n\x00\x00\x00'
p4833
tp4834
Rp4835
sVRikubetsu
p4836
g2
(g6
S'\x11\x00\x00\x00'
p4837
tp4838
Rp4839
sVTozawa
p4840
g2
(g6
S'\x0b\x00\x00\x00'
p4841
tp4842
Rp4843
sVT\u014dyako
p4844
g2
(g6
S'\t\x00\x00\x00'
p4845
tp4846
Rp4847
sVOnna
p4848
g2
(g6
S'\x02\x00\x00\x00'
p4849
tp4850
Rp4851
sVAkaiwa
p4852
g2
(g6
S'\x01\x00\x00\x00'
p4853
tp4854
Rp4855
sVKanda
p4856
g2
(g6
S'\x06\x00\x00\x00'
p4857
tp4858
Rp4859
sVNamegawa
p4860
g2
(g6
S'\x10\x00\x00\x00'
p4861
tp4862
Rp4863
sVEchizen
p4864
g2
(g6
S'\x0b\x00\x00\x00'
p4865
tp4866
Rp4867
sVKaifu
p4868
g2
(g6
S'\x02\x00\x00\x00'
p4869
tp4870
Rp4871
sVItoman
p4872
g2
(g6
S'\x07\x00\x00\x00'
p4873
tp4874
Rp4875
sVFujisaki
p4876
g2
(g6
S'\x04\x00\x00\x00'
p4877
tp4878
Rp4879
sVSakahogi
p4880
g2
(g6
S'\x11\x00\x00\x00'
p4881
tp4882
Rp4883
sVTaga
p4884
g2
(g6
S'\x0e\x00\x00\x00'
p4885
tp4886
Rp4887
sVKadena
p4888
g2
(g6
S'\x0e\x00\x00\x00'
p4889
tp4890
Rp4891
sVNishiusuki
p4892
g2
(g6
S'\x0f\x00\x00\x00'
p4893
tp4894
Rp4895
sVMarumori
p4896
g2
(g6
S'\n\x00\x00\x00'
p4897
tp4898
Rp4899
sVTakatsuki
p4900
g2
(g6
S'\x01\x00\x00\x00'
p4901
tp4902
Rp4903
sVOkutama
p4904
g2
(g6
S'\x0f\x00\x00\x00'
p4905
tp4906
Rp4907
sVK\u014dge
p4908
g2
(g6
S'\x06\x00\x00\x00'
p4909
tp4910
Rp4911
sVTachiarai
p4912
g2
(g6
S'\x01\x00\x00\x00'
p4913
tp4914
Rp4915
sVIkata
p4916
g2
(g6
S'\x02\x00\x00\x00'
p4917
tp4918
Rp4919
sVAyauta
p4920
g2
(g6
S'\x04\x00\x00\x00'
p4921
tp4922
Rp4923
sV\u014cdai
p4924
g2
(g6
S'\x08\x00\x00\x00'
p4925
tp4926
Rp4927
sVNakauonuma
p4928
g2
(g6
S'\x02\x00\x00\x00'
p4929
tp4930
Rp4931
sVHiroshima
p4932
g2
(g6
S'\x11\x00\x00\x00'
p4933
tp4934
Rp4935
sV\u014cnoj\u014d
p4936
g2
(g6
S'\x12\x00\x00\x00'
p4937
tp4938
Rp4939
sVHayashima
p4940
g2
(g6
S'\x03\x00\x00\x00'
p4941
tp4942
Rp4943
sVOgasawara
p4944
g2
(g6
S'\x10\x00\x00\x00'
p4945
tp4946
Rp4947
sVMitane
p4948
g2
(g6
S'\x07\x00\x00\x00'
p4949
tp4950
Rp4951
sVNozawaonsen
p4952
g2
(g6
S'\x05\x00\x00\x00'
p4953
tp4954
Rp4955
sVIheya
p4956
g2
(g6
S'\x04\x00\x00\x00'
p4957
tp4958
Rp4959
sVChibu
p4960
g2
(g6
S'\x0f\x00\x00\x00'
p4961
tp4962
Rp4963
sVCh\u014dsei
p4964
g2
(g6
S'\x03\x00\x00\x00'
p4965
tp4966
Rp4967
sVUonuma
p4968
g2
(g6
S'\x07\x00\x00\x00'
p4969
tp4970
Rp4971
sVChiba
p4972
g2
(g6
S'\x06\x00\x00\x00'
p4973
tp4974
Rp4975
sVEnbetsu
p4976
g2
(g6
S'\x0f\x00\x00\x00'
p4977
tp4978
Rp4979
sVHidaka
p4980
g2
(g6
S'\r\x00\x00\x00'
p4981
tp4982
Rp4983
sVToride
p4984
g2
(g6
S'\x02\x00\x00\x00'
p4985
tp4986
Rp4987
sVTadotsu
p4988
g2
(g6
S'\x03\x00\x00\x00'
p4989
tp4990
Rp4991
sVTsubetsu
p4992
g2
(g6
S'\x0f\x00\x00\x00'
p4993
tp4994
Rp4995
sVIzumi\u014dtsu
p4996
g2
(g6
S'\x02\x00\x00\x00'
p4997
tp4998
Rp4999
sVAkashi
p5000
g2
(g6
S'\x0c\x00\x00\x00'
p5001
tp5002
Rp5003
sVT\u014dy\u014d
p5004
g2
(g6
S'\x03\x00\x00\x00'
p5005
tp5006
Rp5007
sVTokoname
p5008
g2
(g6
S'\x03\x00\x00\x00'
p5009
tp5010
Rp5011
sVNishishirakawa
p5012
g2
(g6
S'\x01\x00\x00\x00'
p5013
tp5014
Rp5015
sVUwajima
p5016
g2
(g6
S'\x0b\x00\x00\x00'
p5017
tp5018
Rp5019
sVGosen
p5020
g2
(g6
S'\x02\x00\x00\x00'
p5021
tp5022
Rp5023
sVKisosaki
p5024
g2
(g6
S'\x10\x00\x00\x00'
p5025
tp5026
Rp5027
sVInukami
p5028
g2
(g6
S'\x04\x00\x00\x00'
p5029
tp5030
Rp5031
sVKaita
p5032
g2
(g6
S'\x01\x00\x00\x00'
p5033
tp5034
Rp5035
sVS\u014dya
p5036
g2
(g6
S'\x0e\x00\x00\x00'
p5037
tp5038
Rp5039
sVHigashikurume
p5040
g2
(g6
S'\x13\x00\x00\x00'
p5041
tp5042
Rp5043
sVNisshin
p5044
g2
(g6
S'\x0b\x00\x00\x00'
p5045
tp5046
Rp5047
sVK\u014dzushima
p5048
g2
(g6
S'\x0e\x00\x00\x00'
p5049
tp5050
Rp5051
sVTadaoka
p5052
g2
(g6
S'\x13\x00\x00\x00'
p5053
tp5054
Rp5055
sVHita
p5056
g2
(g6
S'\x12\x00\x00\x00'
p5057
tp5058
Rp5059
sVSoo
p5060
g2
(g6
S'\n\x00\x00\x00'
p5061
tp5062
Rp5063
sVYokohama
p5064
g2
(g6
S'\x01\x00\x00\x00'
p5065
tp5066
Rp5067
sVKy\u014dgoku
p5068
g2
(g6
S'\t\x00\x00\x00'
p5069
tp5070
Rp5071
sVTsumagoi
p5072
g2
(g6
S'\x0b\x00\x00\x00'
p5073
tp5074
Rp5075
sVT\u014dky\u014d
p5076
g2
(g6
S'\x03\x00\x00\x00'
p5077
tp5078
Rp5079
sVKatsurao
p5080
g2
(g6
S'\x0f\x00\x00\x00'
p5081
tp5082
Rp5083
sVKokubunji
p5084
g2
(g6
S'\x0f\x00\x00\x00'
p5085
tp5086
Rp5087
sVMakkari
p5088
g2
(g6
S'\x0b\x00\x00\x00'
p5089
tp5090
Rp5091
sVSuttsu
p5092
g2
(g6
S'\x01\x00\x00\x00'
p5093
tp5094
Rp5095
sVHinokage
p5096
g2
(g6
S'\x0c\x00\x00\x00'
p5097
tp5098
Rp5099
sVKokurakita
p5100
g2
(g6
S'\n\x00\x00\x00'
p5101
tp5102
Rp5103
sVTakeo
p5104
g2
(g6
S'\r\x00\x00\x00'
p5105
tp5106
Rp5107
sVMinamimuro
p5108
g2
(g6
S'\n\x00\x00\x00'
p5109
tp5110
Rp5111
sVBekkai
p5112
g2
(g6
S'\x11\x00\x00\x00'
p5113
tp5114
Rp5115
sVHigashisumiyoshi
p5116
g2
(g6
S'\x0c\x00\x00\x00'
p5117
tp5118
Rp5119
sVKamisunagawa
p5120
g2
(g6
S'\x03\x00\x00\x00'
p5121
tp5122
Rp5123
sVKitaibaraki
p5124
g2
(g6
S'\x0f\x00\x00\x00'
p5125
tp5126
Rp5127
sVHitoyoshi
p5128
g2
(g6
S'\x0e\x00\x00\x00'
p5129
tp5130
Rp5131
sVSakuho
p5132
g2
(g6
S'\x0c\x00\x00\x00'
p5133
tp5134
Rp5135
sVKawatana
p5136
g2
(g6
S'\x10\x00\x00\x00'
p5137
tp5138
Rp5139
sVHinohara
p5140
g2
(g6
S'\x0b\x00\x00\x00'
p5141
tp5142
Rp5143
sVKusatsu
p5144
g2
(g6
S'\x0e\x00\x00\x00'
p5145
tp5146
Rp5147
sVFukuoka
p5148
g2
(g6
S'\x0e\x00\x00\x00'
p5149
tp5150
Rp5151
sVHigashiyama
p5152
g2
(g6
S'\r\x00\x00\x00'
p5153
tp5154
Rp5155
sVKumano
p5156
g2
(g6
S'\x07\x00\x00\x00'
p5157
tp5158
Rp5159
sVKitahiroshima
p5160
g2
(g6
S'\x0b\x00\x00\x00'
p5161
tp5162
Rp5163
sVShintoku
p5164
g2
(g6
S'\x0c\x00\x00\x00'
p5165
tp5166
Rp5167
sVShin'onsen
p5168
g2
(g6
S'\x00\x00\x00\x00'
p5169
tp5170
Rp5171
sVMorioka
p5172
g2
(g6
S'\x13\x00\x00\x00'
p5173
tp5174
Rp5175
sVOtofuke
p5176
g2
(g6
S'\x02\x00\x00\x00'
p5177
tp5178
Rp5179
sVYoshinogawa
p5180
g2
(g6
S'\x10\x00\x00\x00'
p5181
tp5182
Rp5183
sVShikotan
p5184
g2
(g6
S'\x13\x00\x00\x00'
p5185
tp5186
Rp5187
sVTsuzuki
p5188
g2
(g6
S'\x02\x00\x00\x00'
p5189
tp5190
Rp5191
sVArao
p5192
g2
(g6
S'\x10\x00\x00\x00'
p5193
tp5194
Rp5195
sVKamiita
p5196
g2
(g6
S'\t\x00\x00\x00'
p5197
tp5198
Rp5199
sVKaizu
p5200
g2
(g6
S'\x12\x00\x00\x00'
p5201
tp5202
Rp5203
sVShimokita
p5204
g2
(g6
S'\x08\x00\x00\x00'
p5205
tp5206
Rp5207
sVShis\u014d
p5208
g2
(g6
S'\x05\x00\x00\x00'
p5209
tp5210
Rp5211
sVAndo
p5212
g2
(g6
S'\x00\x00\x00\x00'
p5213
tp5214
Rp5215
sVKitaazumi
p5216
g2
(g6
S'\x02\x00\x00\x00'
p5217
tp5218
Rp5219
sVShimamoto
p5220
g2
(g6
S'\x04\x00\x00\x00'
p5221
tp5222
Rp5223
sVKudoyama
p5224
g2
(g6
S'\x04\x00\x00\x00'
p5225
tp5226
Rp5227
sVNy\u016b
p5228
g2
(g6
S'\x0f\x00\x00\x00'
p5229
tp5230
Rp5231
sVImakane
p5232
g2
(g6
S'\x13\x00\x00\x00'
p5233
tp5234
Rp5235
sVSanuki
p5236
g2
(g6
S'\n\x00\x00\x00'
p5237
tp5238
Rp5239
sVKunigami
p5240
g2
(g6
S'\x00\x00\x00\x00'
p5241
tp5242
Rp5243
sVMinamifurano
p5244
g2
(g6
S'\x12\x00\x00\x00'
p5245
tp5246
Rp5247
sVHiraizumi
p5248
g2
(g6
S'\x01\x00\x00\x00'
p5249
tp5250
Rp5251
sVChikuhoku
p5252
g2
(g6
S'\x0e\x00\x00\x00'
p5253
tp5254
Rp5255
sVNagakute
p5256
g2
(g6
S'\t\x00\x00\x00'
p5257
tp5258
Rp5259
sVNishi
p5260
g2
(g6
S'\t\x00\x00\x00'
p5261
tp5262
Rp5263
sVNagai
p5264
g2
(g6
S'\x02\x00\x00\x00'
p5265
tp5266
Rp5267
sVUnnan
p5268
g2
(g6
S'\x02\x00\x00\x00'
p5269
tp5270
Rp5271
sVKudamatsu
p5272
g2
(g6
S'\x11\x00\x00\x00'
p5273
tp5274
Rp5275
sVHamamatsu
p5276
g2
(g6
S'\x07\x00\x00\x00'
p5277
tp5278
Rp5279
sV\u014chira
p5280
g2
(g6
S'\x03\x00\x00\x00'
p5281
tp5282
Rp5283
sVChikuzen
p5284
g2
(g6
S'\x0f\x00\x00\x00'
p5285
tp5286
Rp5287
sVDaigo
p5288
g2
(g6
S'\r\x00\x00\x00'
p5289
tp5290
Rp5291
sVNagi
p5292
g2
(g6
S'\x12\x00\x00\x00'
p5293
tp5294
Rp5295
sVHigashinari
p5296
g2
(g6
S'\x06\x00\x00\x00'
p5297
tp5298
Rp5299
sVUky\u014d
p5300
g2
(g6
S'\x0f\x00\x00\x00'
p5301
tp5302
Rp5303
sVMinamiashigara
p5304
g2
(g6
S'\x11\x00\x00\x00'
p5305
tp5306
Rp5307
sVUrayasu
p5308
g2
(g6
S'\t\x00\x00\x00'
p5309
tp5310
Rp5311
sVChatan
p5312
g2
(g6
S'\r\x00\x00\x00'
p5313
tp5314
Rp5315
sVOnjuku
p5316
g2
(g6
S'\x08\x00\x00\x00'
p5317
tp5318
Rp5319
sV\u014ckuwa
p5320
g2
(g6
S'\x05\x00\x00\x00'
p5321
tp5322
Rp5323
sVTsuruoka
p5324
g2
(g6
S'\r\x00\x00\x00'
p5325
tp5326
Rp5327
sVNikaho
p5328
g2
(g6
S'\x05\x00\x00\x00'
p5329
tp5330
Rp5331
sVEniwa
p5332
g2
(g6
S'\x12\x00\x00\x00'
p5333
tp5334
Rp5335
sVIbigawa
p5336
g2
(g6
S'\x12\x00\x00\x00'
p5337
tp5338
Rp5339
sVKamigy\u014d
p5340
g2
(g6
S'\x12\x00\x00\x00'
p5341
tp5342
Rp5343
sVGoj\u014d
p5344
g2
(g6
S'\x0f\x00\x00\x00'
p5345
tp5346
Rp5347
sVKitagata
p5348
g2
(g6
S'\x01\x00\x00\x00'
p5349
tp5350
Rp5351
sVYamagata
p5352
g2
(g6
S'\x02\x00\x00\x00'
p5353
tp5354
Rp5355
sVHaga
p5356
g2
(g6
S'\x10\x00\x00\x00'
p5357
tp5358
Rp5359
sVKamishihoro
p5360
g2
(g6
S'\x06\x00\x00\x00'
p5361
tp5362
Rp5363
sVHagi
p5364
g2
(g6
S'\x04\x00\x00\x00'
p5365
tp5366
Rp5367
sVKaminokawa
p5368
g2
(g6
S'\x05\x00\x00\x00'
p5369
tp5370
Rp5371
sVSh\u016bnan
p5372
g2
(g6
S'\x10\x00\x00\x00'
p5373
tp5374
Rp5375
sVSugito
p5376
g2
(g6
S'\x05\x00\x00\x00'
p5377
tp5378
Rp5379
sVTakasago
p5380
g2
(g6
S'\n\x00\x00\x00'
p5381
tp5382
Rp5383
sVKimitsu
p5384
g2
(g6
S'\n\x00\x00\x00'
p5385
tp5386
Rp5387
sVOkayama
p5388
g2
(g6
S'\x03\x00\x00\x00'
p5389
tp5390
Rp5391
sVHaebaru
p5392
g2
(g6
S'\r\x00\x00\x00'
p5393
tp5394
Rp5395
sV\u014ctama
p5396
g2
(g6
S'\x00\x00\x00\x00'
p5397
tp5398
Rp5399
sVItabashi
p5400
g2
(g6
S'\x0e\x00\x00\x00'
p5401
tp5402
Rp5403
sVWaga
p5404
g2
(g6
S'\x00\x00\x00\x00'
p5405
tp5406
Rp5407
sVToyosato
p5408
g2
(g6
S'\x11\x00\x00\x00'
p5409
tp5410
Rp5411
sVShibuya
p5412
g2
(g6
S'\x0f\x00\x00\x00'
p5413
tp5414
Rp5415
sVOtokuni
p5416
g2
(g6
S'\x05\x00\x00\x00'
p5417
tp5418
Rp5419
sVSetouchi
p5420
g2
(g6
S'\x01\x00\x00\x00'
p5421
tp5422
Rp5423
sVMurayama
p5424
g2
(g6
S'\x07\x00\x00\x00'
p5425
tp5426
Rp5427
sVMinamiaizu
p5428
g2
(g6
S'\x06\x00\x00\x00'
p5429
tp5430
Rp5431
sVAizuwakamatsu
p5432
g2
(g6
S'\x0f\x00\x00\x00'
p5433
tp5434
Rp5435
sVIzumozaki
p5436
g2
(g6
S'\x03\x00\x00\x00'
p5437
tp5438
Rp5439
sVNabari
p5440
g2
(g6
S'\x07\x00\x00\x00'
p5441
tp5442
Rp5443
sVSakado
p5444
g2
(g6
S'\x13\x00\x00\x00'
p5445
tp5446
Rp5447
sVHiyama
p5448
g2
(g6
S'\x04\x00\x00\x00'
p5449
tp5450
Rp5451
sVYoshika
p5452
g2
(g6
S'\x03\x00\x00\x00'
p5453
tp5454
Rp5455
sVNiijima
p5456
g2
(g6
S'\x12\x00\x00\x00'
p5457
tp5458
Rp5459
sVIitate
p5460
g2
(g6
S'\r\x00\x00\x00'
p5461
tp5462
Rp5463
sVFujiidera
p5464
g2
(g6
S'\n\x00\x00\x00'
p5465
tp5466
Rp5467
sVTsuruga
p5468
g2
(g6
S'\x07\x00\x00\x00'
p5469
tp5470
Rp5471
sVNeyagawa
p5472
g2
(g6
S'\x00\x00\x00\x00'
p5473
tp5474
Rp5475
sVYaese
p5476
g2
(g6
S'\x0c\x00\x00\x00'
p5477
tp5478
Rp5479
sVTokashiki
p5480
g2
(g6
S'\x0c\x00\x00\x00'
p5481
tp5482
Rp5483
sVTsurugi
p5484
g2
(g6
S'\x08\x00\x00\x00'
p5485
tp5486
Rp5487
sVNakano
p5488
g2
(g6
S'\x02\x00\x00\x00'
p5489
tp5490
Rp5491
sVShinshinotsu
p5492
g2
(g6
S'\x07\x00\x00\x00'
p5493
tp5494
Rp5495
sVShimokawa
p5496
g2
(g6
S'\n\x00\x00\x00'
p5497
tp5498
Rp5499
sVTano
p5500
g2
(g6
S'\x0c\x00\x00\x00'
p5501
tp5502
Rp5503
sVHigashikawa
p5504
g2
(g6
S'\x0b\x00\x00\x00'
p5505
tp5506
Rp5507
sVMimata
p5508
g2
(g6
S'\x04\x00\x00\x00'
p5509
tp5510
Rp5511
sVHatsukaichi
p5512
g2
(g6
S'\x00\x00\x00\x00'
p5513
tp5514
Rp5515
sVKanan
p5516
g2
(g6
S'\x06\x00\x00\x00'
p5517
tp5518
Rp5519
sVNemuro
p5520
g2
(g6
S'\n\x00\x00\x00'
p5521
tp5522
Rp5523
sVYakumo
p5524
g2
(g6
S'\x03\x00\x00\x00'
p5525
tp5526
Rp5527
sVFurudono
p5528
g2
(g6
S'\x03\x00\x00\x00'
p5529
tp5530
Rp5531
sVWatari
p5532
g2
(g6
S'\x0e\x00\x00\x00'
p5533
tp5534
Rp5535
sVFujisato
p5536
g2
(g6
S'\x01\x00\x00\x00'
p5537
tp5538
Rp5539
sVYawatahama
p5540
g2
(g6
S'\x06\x00\x00\x00'
p5541
tp5542
Rp5543
sVTobata
p5544
g2
(g6
S'\x12\x00\x00\x00'
p5545
tp5546
Rp5547
sVKurayoshi
p5548
g2
(g6
S'\x05\x00\x00\x00'
p5549
tp5550
Rp5551
sVYanaizu
p5552
g2
(g6
S'\x0b\x00\x00\x00'
p5553
tp5554
Rp5555
sVNoheji
p5556
g2
(g6
S'\x05\x00\x00\x00'
p5557
tp5558
Rp5559
sVKawabe
p5560
g2
(g6
S'\x0e\x00\x00\x00'
p5561
tp5562
Rp5563
sVAwara
p5564
g2
(g6
S'\r\x00\x00\x00'
p5565
tp5566
Rp5567
sVSenboku
p5568
g2
(g6
S'\t\x00\x00\x00'
p5569
tp5570
Rp5571
sVKawaba
p5572
g2
(g6
S'\t\x00\x00\x00'
p5573
tp5574
Rp5575
sVNiihama
p5576
g2
(g6
S'\x0c\x00\x00\x00'
p5577
tp5578
Rp5579
sVSuminoe
p5580
g2
(g6
S'\x05\x00\x00\x00'
p5581
tp5582
Rp5583
sVUreshino
p5584
g2
(g6
S'\x02\x00\x00\x00'
p5585
tp5586
Rp5587
sVKoumi
p5588
g2
(g6
S'\x03\x00\x00\x00'
p5589
tp5590
Rp5591
sVTakahashi
p5592
g2
(g6
S'\x08\x00\x00\x00'
p5593
tp5594
Rp5595
sVTsuwano
p5596
g2
(g6
S'\x0c\x00\x00\x00'
p5597
tp5598
Rp5599
sVNagomi
p5600
g2
(g6
S'\x02\x00\x00\x00'
p5601
tp5602
Rp5603
sVY\u016bsui
p5604
g2
(g6
S'\x02\x00\x00\x00'
p5605
tp5606
Rp5607
sVShichinohe
p5608
g2
(g6
S'\n\x00\x00\x00'
p5609
tp5610
Rp5611
sVItami
p5612
g2
(g6
S'\x13\x00\x00\x00'
p5613
tp5614
Rp5615
sVMuk\u014d
p5616
g2
(g6
S'\x01\x00\x00\x00'
p5617
tp5618
Rp5619
sVBizen
p5620
g2
(g6
S'\x01\x00\x00\x00'
p5621
tp5622
Rp5623
sVTonami
p5624
g2
(g6
S'\x02\x00\x00\x00'
p5625
tp5626
Rp5627
sVIshioka
p5628
g2
(g6
S'\x0e\x00\x00\x00'
p5629
tp5630
Rp5631
sVKamiukena
p5632
g2
(g6
S'\x05\x00\x00\x00'
p5633
tp5634
Rp5635
sVEbino
p5636
g2
(g6
S'\x10\x00\x00\x00'
p5637
tp5638
Rp5639
sVHiratsuka
p5640
g2
(g6
S'\x10\x00\x00\x00'
p5641
tp5642
Rp5643
sVEbina
p5644
g2
(g6
S'\x06\x00\x00\x00'
p5645
tp5646
Rp5647
sVKawanehon
p5648
g2
(g6
S'\x05\x00\x00\x00'
p5649
tp5650
Rp5651
sVMoroyama
p5652
g2
(g6
S'\x13\x00\x00\x00'
p5653
tp5654
Rp5655
sVMinato
p5656
g2
(g6
S'\x0c\x00\x00\x00'
p5657
tp5658
Rp5659
sVAsakawa
p5660
g2
(g6
S'\x01\x00\x00\x00'
p5661
tp5662
Rp5663
sVYamae
p5664
g2
(g6
S'\x06\x00\x00\x00'
p5665
tp5666
Rp5667
sVNarita
p5668
g2
(g6
S'\x13\x00\x00\x00'
p5669
tp5670
Rp5671
sVJ\u014dt\u014d
p5672
g2
(g6
S'\x13\x00\x00\x00'
p5673
tp5674
Rp5675
sVMihama
p5676
g2
(g6
S'\x01\x00\x00\x00'
p5677
tp5678
Rp5679
sVOkagaki
p5680
g2
(g6
S'\x13\x00\x00\x00'
p5681
tp5682
Rp5683
sVNishiki
p5684
g2
(g6
S'\x08\x00\x00\x00'
p5685
tp5686
Rp5687
sVSaikai
p5688
g2
(g6
S'\x10\x00\x00\x00'
p5689
tp5690
Rp5691
sVKasuya
p5692
g2
(g6
S'\x08\x00\x00\x00'
p5693
tp5694
Rp5695
sVAjigasawa
p5696
g2
(g6
S'\x04\x00\x00\x00'
p5697
tp5698
Rp5699
sVHigashiagatsuma
p5700
g2
(g6
S'\x00\x00\x00\x00'
p5701
tp5702
Rp5703
sVAizumisato
p5704
g2
(g6
S'\x02\x00\x00\x00'
p5705
tp5706
Rp5707
sVItakura
p5708
g2
(g6
S'\x0c\x00\x00\x00'
p5709
tp5710
Rp5711
sVNakagusuku
p5712
g2
(g6
S'\x07\x00\x00\x00'
p5713
tp5714
Rp5715
sVKotohira
p5716
g2
(g6
S'\x07\x00\x00\x00'
p5717
tp5718
Rp5719
sVSh\u014dzu
p5720
g2
(g6
S'\x06\x00\x00\x00'
p5721
tp5722
Rp5723
sVFujiyoshida
p5724
g2
(g6
S'\n\x00\x00\x00'
p5725
tp5726
Rp5727
sVYotsukaid\u014d
p5728
g2
(g6
S'\x10\x00\x00\x00'
p5729
tp5730
Rp5731
sVFurano
p5732
g2
(g6
S'\t\x00\x00\x00'
p5733
tp5734
Rp5735
sVHachir\u014dgata
p5736
g2
(g6
S'\r\x00\x00\x00'
p5737
tp5738
Rp5739
sVToyokawa
p5740
g2
(g6
S'\x01\x00\x00\x00'
p5741
tp5742
Rp5743
sVHirogawa
p5744
g2
(g6
S'\x11\x00\x00\x00'
p5745
tp5746
Rp5747
sVMiyazaki
p5748
g2
(g6
S'\x07\x00\x00\x00'
p5749
tp5750
Rp5751
sVMinabe
p5752
g2
(g6
S'\x0c\x00\x00\x00'
p5753
tp5754
Rp5755
sVKaiy\u014d
p5756
g2
(g6
S'\n\x00\x00\x00'
p5757
tp5758
Rp5759
sVTeshio
p5760
g2
(g6
S'\x0b\x00\x00\x00'
p5761
tp5762
Rp5763
sVUki
p5764
g2
(g6
S'\x08\x00\x00\x00'
p5765
tp5766
Rp5767
sVGenkai
p5768
g2
(g6
S'\r\x00\x00\x00'
p5769
tp5770
Rp5771
sVFudai
p5772
g2
(g6
S'\x12\x00\x00\x00'
p5773
tp5774
Rp5775
sVKatsuragi
p5776
g2
(g6
S'\x04\x00\x00\x00'
p5777
tp5778
Rp5779
sVNishiky\u014d
p5780
g2
(g6
S'\x12\x00\x00\x00'
p5781
tp5782
Rp5783
sVHamakita
p5784
g2
(g6
S'\x0e\x00\x00\x00'
p5785
tp5786
Rp5787
sVAsao
p5788
g2
(g6
S'\x0e\x00\x00\x00'
p5789
tp5790
Rp5791
sVOmitama
p5792
g2
(g6
S'\x10\x00\x00\x00'
p5793
tp5794
Rp5795
sVT\u014din
p5796
g2
(g6
S'\x0f\x00\x00\x00'
p5797
tp5798
Rp5799
sVNasu
p5800
g2
(g6
S'\x02\x00\x00\x00'
p5801
tp5802
Rp5803
sVMie
p5804
g2
(g6
S'\x0f\x00\x00\x00'
p5805
tp5806
Rp5807
sVKatta
p5808
g2
(g6
S'\x07\x00\x00\x00'
p5809
tp5810
Rp5811
sVAioi
p5812
g2
(g6
S'\x12\x00\x00\x00'
p5813
tp5814
Rp5815
sVHokury\u016b
p5816
g2
(g6
S'\r\x00\x00\x00'
p5817
tp5818
Rp5819
sVMibu
p5820
g2
(g6
S'\x0b\x00\x00\x00'
p5821
tp5822
Rp5823
sVHigashitagawa
p5824
g2
(g6
S'\x10\x00\x00\x00'
p5825
tp5826
Rp5827
sVHann\u014d
p5828
g2
(g6
S'\x07\x00\x00\x00'
p5829
tp5830
Rp5831
sVYasuoka
p5832
g2
(g6
S'\r\x00\x00\x00'
p5833
tp5834
Rp5835
sVUrasoe
p5836
g2
(g6
S'\x0b\x00\x00\x00'
p5837
tp5838
Rp5839
sVTagawa
p5840
g2
(g6
S'\x0c\x00\x00\x00'
p5841
tp5842
Rp5843
sVFukusaki
p5844
g2
(g6
S'\x12\x00\x00\x00'
p5845
tp5846
Rp5847
sVNakatsugawa
p5848
g2
(g6
S'\x10\x00\x00\x00'
p5849
tp5850
Rp5851
sVNagaizumi
p5852
g2
(g6
S'\x00\x00\x00\x00'
p5853
tp5854
Rp5855
sVAoki
p5856
g2
(g6
S'\x0b\x00\x00\x00'
p5857
tp5858
Rp5859
sVWakabayashi
p5860
g2
(g6
S'\r\x00\x00\x00'
p5861
tp5862
Rp5863
sVHanamigawa
p5864
g2
(g6
S'\x0f\x00\x00\x00'
p5865
tp5866
Rp5867
sVKazamaura
p5868
g2
(g6
S'\x12\x00\x00\x00'
p5869
tp5870
Rp5871
sVEbetsu
p5872
g2
(g6
S'\r\x00\x00\x00'
p5873
tp5874
Rp5875
sVKaizuka
p5876
g2
(g6
S'\x06\x00\x00\x00'
p5877
tp5878
Rp5879
sVMisasa
p5880
g2
(g6
S'\x08\x00\x00\x00'
p5881
tp5882
Rp5883
sVKotoura
p5884
g2
(g6
S'\x02\x00\x00\x00'
p5885
tp5886
Rp5887
sVYokoshibahikari
p5888
g2
(g6
S'\x08\x00\x00\x00'
p5889
tp5890
Rp5891
sVOtari
p5892
g2
(g6
S'\x0b\x00\x00\x00'
p5893
tp5894
Rp5895
sVMinamiise
p5896
g2
(g6
S'\x06\x00\x00\x00'
p5897
tp5898
Rp5899
sVSagamihara
p5900
g2
(g6
S'\x06\x00\x00\x00'
p5901
tp5902
Rp5903
sVOtaru
p5904
g2
(g6
S'\x07\x00\x00\x00'
p5905
tp5906
Rp5907
sVMoseushi
p5908
g2
(g6
S'\x0b\x00\x00\x00'
p5909
tp5910
Rp5911
sVKizugawa
p5912
g2
(g6
S'\x05\x00\x00\x00'
p5913
tp5914
Rp5915
sVYufu
p5916
g2
(g6
S'\x08\x00\x00\x00'
p5917
tp5918
Rp5919
sVNakai
p5920
g2
(g6
S'\n\x00\x00\x00'
p5921
tp5922
Rp5923
sVAbiko
p5924
g2
(g6
S'\x0c\x00\x00\x00'
p5925
tp5926
Rp5927
sVTamaki
p5928
g2
(g6
S'\x13\x00\x00\x00'
p5929
tp5930
Rp5931
sVKitsuki
p5932
g2
(g6
S'\x13\x00\x00\x00'
p5933
tp5934
Rp5935
sVWatarai
p5936
g2
(g6
S'\x04\x00\x00\x00'
p5937
tp5938
Rp5939
sVJ\u014detsu
p5940
g2
(g6
S'\x02\x00\x00\x00'
p5941
tp5942
Rp5943
sVAya
p5944
g2
(g6
S'\r\x00\x00\x00'
p5945
tp5946
Rp5947
sVItano
p5948
g2
(g6
S'\x11\x00\x00\x00'
p5949
tp5950
Rp5951
sVKaisei
p5952
g2
(g6
S'\x02\x00\x00\x00'
p5953
tp5954
Rp5955
sVOketo
p5956
g2
(g6
S'\x11\x00\x00\x00'
p5957
tp5958
Rp5959
sVShinhidaka
p5960
g2
(g6
S'\x00\x00\x00\x00'
p5961
tp5962
Rp5963
sVHigashishirakawa
p5964
g2
(g6
S'\x11\x00\x00\x00'
p5965
tp5966
Rp5967
sVSamani
p5968
g2
(g6
S'\x02\x00\x00\x00'
p5969
tp5970
Rp5971
sVYuza
p5972
g2
(g6
S'\x00\x00\x00\x00'
p5973
tp5974
Rp5975
sVShisui
p5976
g2
(g6
S'\x0f\x00\x00\x00'
p5977
tp5978
Rp5979
sVToyoake
p5980
g2
(g6
S'\x11\x00\x00\x00'
p5981
tp5982
Rp5983
sVAshigarashimo
p5984
g2
(g6
S'\x01\x00\x00\x00'
p5985
tp5986
Rp5987
sVT\u014dh\u014d
p5988
g2
(g6
S'\x0f\x00\x00\x00'
p5989
tp5990
Rp5991
sVIbi
p5992
g2
(g6
S'\x0b\x00\x00\x00'
p5993
tp5994
Rp5995
sVIbo
p5996
g2
(g6
S'\x11\x00\x00\x00'
p5997
tp5998
Rp5999
sVMaibara
p6000
g2
(g6
S'\x12\x00\x00\x00'
p6001
tp6002
Rp6003
sVYugawara
p6004
g2
(g6
S'\x00\x00\x00\x00'
p6005
tp6006
Rp6007
sVHigashisonogi
p6008
g2
(g6
S'\t\x00\x00\x00'
p6009
tp6010
Rp6011
sVSai
p6012
g2
(g6
S'\x00\x00\x00\x00'
p6013
tp6014
Rp6015
sVMatsushima
p6016
g2
(g6
S'\x10\x00\x00\x00'
p6017
tp6018
Rp6019
sVMinamiarupusu
p6020
g2
(g6
S'\x05\x00\x00\x00'
p6021
tp6022
Rp6023
sV\u014csh\u016b
p6024
g2
(g6
S'\x11\x00\x00\x00'
p6025
tp6026
Rp6027
sVYakushima
p6028
g2
(g6
S'\x03\x00\x00\x00'
p6029
tp6030
Rp6031
sVHasami
p6032
g2
(g6
S'\x10\x00\x00\x00'
p6033
tp6034
Rp6035
sV\u014ctsuki
p6036
g2
(g6
S'\x01\x00\x00\x00'
p6037
tp6038
Rp6039
sVKishima
p6040
g2
(g6
S'\r\x00\x00\x00'
p6041
tp6042
Rp6043
sVNakatado
p6044
g2
(g6
S'\x00\x00\x00\x00'
p6045
tp6046
Rp6047
sVSeiyo
p6048
g2
(g6
S'\n\x00\x00\x00'
p6049
tp6050
Rp6051
sVTomari
p6052
g2
(g6
S'\r\x00\x00\x00'
p6053
tp6054
Rp6055
sVTaiwa
p6056
g2
(g6
S'\x08\x00\x00\x00'
p6057
tp6058
Rp6059
sVIwafune
p6060
g2
(g6
S'\n\x00\x00\x00'
p6061
tp6062
Rp6063
sVTakehara
p6064
g2
(g6
S'\n\x00\x00\x00'
p6065
tp6066
Rp6067
sVKodaira
p6068
g2
(g6
S'\r\x00\x00\x00'
p6069
tp6070
Rp6071
sVMoriya
p6072
g2
(g6
S'\x0e\x00\x00\x00'
p6073
tp6074
Rp6075
sVMakurazaki
p6076
g2
(g6
S'\x08\x00\x00\x00'
p6077
tp6078
Rp6079
sVSant\u014d
p6080
g2
(g6
S'\x0c\x00\x00\x00'
p6081
tp6082
Rp6083
sVAsahikawa
p6084
g2
(g6
S'\x0c\x00\x00\x00'
p6085
tp6086
Rp6087
sVKaneyama
p6088
g2
(g6
S'\x0f\x00\x00\x00'
p6089
tp6090
Rp6091
sVTend\u014d
p6092
g2
(g6
S'\x0c\x00\x00\x00'
p6093
tp6094
Rp6095
sVYamanobe
p6096
g2
(g6
S'\x0c\x00\x00\x00'
p6097
tp6098
Rp6099
sVAoi
p6100
g2
(g6
S'\x02\x00\x00\x00'
p6101
tp6102
Rp6103
sVChina
p6104
g2
(g6
S'\r\x00\x00\x00'
p6105
tp6106
Rp6107
sVChino
p6108
g2
(g6
S'\x06\x00\x00\x00'
p6109
tp6110
Rp6111
sVToyooka
p6112
g2
(g6
S'\x11\x00\x00\x00'
p6113
tp6114
Rp6115
sVHarima
p6116
g2
(g6
S'\x0c\x00\x00\x00'
p6117
tp6118
Rp6119
sVKitashitara
p6120
g2
(g6
S'\x05\x00\x00\x00'
p6121
tp6122
Rp6123
sV\u014csaki
p6124
g2
(g6
S'\x0c\x00\x00\x00'
p6125
tp6126
Rp6127
sVKitamatsuura
p6128
g2
(g6
S'\x08\x00\x00\x00'
p6129
tp6130
Rp6131
sVNaganohara
p6132
g2
(g6
S'\x01\x00\x00\x00'
p6133
tp6134
Rp6135
sVShintomi
p6136
g2
(g6
S'\x05\x00\x00\x00'
p6137
tp6138
Rp6139
sVNiigata
p6140
g2
(g6
S'\x03\x00\x00\x00'
p6141
tp6142
Rp6143
sVOkegawa
p6144
g2
(g6
S'\x05\x00\x00\x00'
p6145
tp6146
Rp6147
sVMiyagino
p6148
g2
(g6
S'\x05\x00\x00\x00'
p6149
tp6150
Rp6151
sV\u014csato
p6152
g2
(g6
S'\x13\x00\x00\x00'
p6153
tp6154
Rp6155
sVKaminokuni
p6156
g2
(g6
S'\r\x00\x00\x00'
p6157
tp6158
Rp6159
sVZushi
p6160
g2
(g6
S'\x10\x00\x00\x00'
p6161
tp6162
Rp6163
sVOchi
p6164
g2
(g6
S'\x0e\x00\x00\x00'
p6165
tp6166
Rp6167
sVKonan
p6168
g2
(g6
S'\x13\x00\x00\x00'
p6169
tp6170
Rp6171
sVSeika
p6172
g2
(g6
S'\x06\x00\x00\x00'
p6173
tp6174
Rp6175
sVK\u014dnosu
p6176
g2
(g6
S'\n\x00\x00\x00'
p6177
tp6178
Rp6179
sVSakai
p6180
g2
(g6
S'\x0c\x00\x00\x00'
p6181
tp6182
Rp6183
sVTomioka
p6184
g2
(g6
S'\x03\x00\x00\x00'
p6185
tp6186
Rp6187
sVSakae
p6188
g2
(g6
S'\x06\x00\x00\x00'
p6189
tp6190
Rp6191
sVShikokuch\u016b\u014d
p6192
g2
(g6
S'\x07\x00\x00\x00'
p6193
tp6194
Rp6195
sVKeisen
p6196
g2
(g6
S'\x02\x00\x00\x00'
p6197
tp6198
Rp6199
sVShiroi
p6200
g2
(g6
S'\x07\x00\x00\x00'
p6201
tp6202
Rp6203
sVIwaizumi
p6204
g2
(g6
S'\x04\x00\x00\x00'
p6205
tp6206
Rp6207
sVAkitakata
p6208
g2
(g6
S'\x02\x00\x00\x00'
p6209
tp6210
Rp6211
sVSashima
p6212
g2
(g6
S'\x00\x00\x00\x00'
p6213
tp6214
Rp6215
sVKitamoto
p6216
g2
(g6
S'\x10\x00\x00\x00'
p6217
tp6218
Rp6219
sVShimajiri
p6220
g2
(g6
S'\x05\x00\x00\x00'
p6221
tp6222
Rp6223
sVIizuka
p6224
g2
(g6
S'\x06\x00\x00\x00'
p6225
tp6226
Rp6227
sVHorokanai
p6228
g2
(g6
S'\n\x00\x00\x00'
p6229
tp6230
Rp6231
sVNara
p6232
g2
(g6
S'\x07\x00\x00\x00'
p6233
tp6234
Rp6235
sVKawanuma
p6236
g2
(g6
S'\x12\x00\x00\x00'
p6237
tp6238
Rp6239
sVNanporo
p6240
g2
(g6
S'\x0e\x00\x00\x00'
p6241
tp6242
Rp6243
sVGeisei
p6244
g2
(g6
S'\x0e\x00\x00\x00'
p6245
tp6246
Rp6247
sVShana
p6248
g2
(g6
S'\x06\x00\x00\x00'
p6249
tp6250
Rp6251
sVSanag\u014dchi
p6252
g2
(g6
S'\x05\x00\x00\x00'
p6253
tp6254
Rp6255
sVMashiko
p6256
g2
(g6
S'\t\x00\x00\x00'
p6257
tp6258
Rp6259
sVGyokut\u014d
p6260
g2
(g6
S'\x11\x00\x00\x00'
p6261
tp6262
Rp6263
sVMashiki
p6264
g2
(g6
S'\x0c\x00\x00\x00'
p6265
tp6266
Rp6267
sVMashike
p6268
g2
(g6
S'\t\x00\x00\x00'
p6269
tp6270
Rp6271
sVNishikan
p6272
g2
(g6
S'\x12\x00\x00\x00'
p6273
tp6274
Rp6275
sVAguni
p6276
g2
(g6
S'\n\x00\x00\x00'
p6277
tp6278
Rp6279
sVHigashimiyoshi
p6280
g2
(g6
S'\x10\x00\x00\x00'
p6281
tp6282
Rp6283
sV\u014charu
p6284
g2
(g6
S'\n\x00\x00\x00'
p6285
tp6286
Rp6287
sVGokase
p6288
g2
(g6
S'\r\x00\x00\x00'
p6289
tp6290
Rp6291
sV\u014cmura
p6292
g2
(g6
S'\x0b\x00\x00\x00'
p6293
tp6294
Rp6295
sVFujieda
p6296
g2
(g6
S'\x0e\x00\x00\x00'
p6297
tp6298
Rp6299
sVK\u014dhoku
p6300
g2
(g6
S'\x00\x00\x00\x00'
p6301
tp6302
Rp6303
sVKat\u014d
p6304
g2
(g6
S'\x07\x00\x00\x00'
p6305
tp6306
Rp6307
sVNantan
p6308
g2
(g6
S'\x03\x00\x00\x00'
p6309
tp6310
Rp6311
sVOshima
p6312
g2
(g6
S'\x13\x00\x00\x00'
p6313
tp6314
Rp6315
sVFukaura
p6316
g2
(g6
S'\x04\x00\x00\x00'
p6317
tp6318
Rp6319
sV\u014cbu
p6320
g2
(g6
S'\x13\x00\x00\x00'
p6321
tp6322
Rp6323
sVMakinohara
p6324
g2
(g6
S'\n\x00\x00\x00'
p6325
tp6326
Rp6327
sVTarama
p6328
g2
(g6
S'\x10\x00\x00\x00'
p6329
tp6330
Rp6331
sVItoigawa
p6332
g2
(g6
S'\x02\x00\x00\x00'
p6333
tp6334
Rp6335
sVAshigarakami
p6336
g2
(g6
S'\x07\x00\x00\x00'
p6337
tp6338
Rp6339
sVMinamiaso
p6340
g2
(g6
S'\x0c\x00\x00\x00'
p6341
tp6342
Rp6343
sVToyono
p6344
g2
(g6
S'\x0f\x00\x00\x00'
p6345
tp6346
Rp6347
sVKamagaya
p6348
g2
(g6
S'\x02\x00\x00\x00'
p6349
tp6350
Rp6351
sVOjiya
p6352
g2
(g6
S'\x10\x00\x00\x00'
p6353
tp6354
Rp6355
sVTsukuba
p6356
g2
(g6
S'\x08\x00\x00\x00'
p6357
tp6358
Rp6359
sVToyone
p6360
g2
(g6
S'\x08\x00\x00\x00'
p6361
tp6362
Rp6363
sVSennan
p6364
g2
(g6
S'\x04\x00\x00\x00'
p6365
tp6366
Rp6367
sVKimino
p6368
g2
(g6
S'\x0e\x00\x00\x00'
p6369
tp6370
Rp6371
sVK\u014dbe
p6372
g2
(g6
S'\x03\x00\x00\x00'
p6373
tp6374
Rp6375
sVRokunohe
p6376
g2
(g6
S'\x03\x00\x00\x00'
p6377
tp6378
Rp6379
sVMusashimurayama
p6380
g2
(g6
S'\x10\x00\x00\x00'
p6381
tp6382
Rp6383
sVMarugame
p6384
g2
(g6
S'\x0e\x00\x00\x00'
p6385
tp6386
Rp6387
sVFukuyama
p6388
g2
(g6
S'\x02\x00\x00\x00'
p6389
tp6390
Rp6391
sVToyoura
p6392
g2
(g6
S'\x07\x00\x00\x00'
p6393
tp6394
Rp6395
sVTobishima
p6396
g2
(g6
S'\x0f\x00\x00\x00'
p6397
tp6398
Rp6399
sVKiso
p6400
g2
(g6
S'\t\x00\x00\x00'
p6401
tp6402
Rp6403
sVTsubame
p6404
g2
(g6
S'\x11\x00\x00\x00'
p6405
tp6406
Rp6407
sVIkusaka
p6408
g2
(g6
S'\x0e\x00\x00\x00'
p6409
tp6410
Rp6411
sVKiry\u016b
p6412
g2
(g6
S'\x04\x00\x00\x00'
p6413
tp6414
Rp6415
sVAsakita
p6416
g2
(g6
S'\x10\x00\x00\x00'
p6417
tp6418
Rp6419
sVNosegawa
p6420
g2
(g6
S'\n\x00\x00\x00'
p6421
tp6422
Rp6423
sVToyama
p6424
g2
(g6
S'\x0c\x00\x00\x00'
p6425
tp6426
Rp6427
sVYuasa
p6428
g2
(g6
S'\x07\x00\x00\x00'
p6429
tp6430
Rp6431
sVMutsuzawa
p6432
g2
(g6
S'\x12\x00\x00\x00'
p6433
tp6434
Rp6435
sVHinoemata
p6436
g2
(g6
S'\x0c\x00\x00\x00'
p6437
tp6438
Rp6439
sVUji
p6440
g2
(g6
S'\x05\x00\x00\x00'
p6441
tp6442
Rp6443
sVToki
p6444
g2
(g6
S'\x02\x00\x00\x00'
p6445
tp6446
Rp6447
sVIishi
p6448
g2
(g6
S'\x04\x00\x00\x00'
p6449
tp6450
Rp6451
sVYashio
p6452
g2
(g6
S'\x00\x00\x00\x00'
p6453
tp6454
Rp6455
sV\u014cmiya
p6456
g2
(g6
S'\n\x00\x00\x00'
p6457
tp6458
Rp6459
sVSaroma
p6460
g2
(g6
S'\x11\x00\x00\x00'
p6461
tp6462
Rp6463
sVAgano
p6464
g2
(g6
S'\x06\x00\x00\x00'
p6465
tp6466
Rp6467
sVFujimi
p6468
g2
(g6
S'\x00\x00\x00\x00'
p6469
tp6470
Rp6471
sVOdawara
p6472
g2
(g6
S'\x12\x00\x00\x00'
p6473
tp6474
Rp6475
sVManiwa
p6476
g2
(g6
S'\x0e\x00\x00\x00'
p6477
tp6478
Rp6479
sVShime
p6480
g2
(g6
S'\x11\x00\x00\x00'
p6481
tp6482
Rp6483
sVTara
p6484
g2
(g6
S'\x0b\x00\x00\x00'
p6485
tp6486
Rp6487
sVKamaishi
p6488
g2
(g6
S'\x01\x00\x00\x00'
p6489
tp6490
Rp6491
sVNishihara
p6492
g2
(g6
S'\x13\x00\x00\x00'
p6493
tp6494
Rp6495
sVShima
p6496
g2
(g6
S'\n\x00\x00\x00'
p6497
tp6498
Rp6499
sVHatoyama
p6500
g2
(g6
S'\x12\x00\x00\x00'
p6501
tp6502
Rp6503
sVKutchan
p6504
g2
(g6
S'\r\x00\x00\x00'
p6505
tp6506
Rp6507
sVMitoyo
p6508
g2
(g6
S'\x11\x00\x00\x00'
p6509
tp6510
Rp6511
sVKawara
p6512
g2
(g6
S'\x07\x00\x00\x00'
p6513
tp6514
Rp6515
sVMotoyoshi
p6516
g2
(g6
S'\x0f\x00\x00\x00'
p6517
tp6518
Rp6519
sVHigashimatsuyama
p6520
g2
(g6
S'\x11\x00\x00\x00'
p6521
tp6522
Rp6523
sVKurihara
p6524
g2
(g6
S'\x06\x00\x00\x00'
p6525
tp6526
Rp6527
sVNishit\u014dky\u014d
p6528
g2
(g6
S'\x0f\x00\x00\x00'
p6529
tp6530
Rp6531
sVYunomae
p6532
g2
(g6
S'\x12\x00\x00\x00'
p6533
tp6534
Rp6535
sVSumita
p6536
g2
(g6
S'\x05\x00\x00\x00'
p6537
tp6538
Rp6539
sVS\u014dja
p6540
g2
(g6
S'\x11\x00\x00\x00'
p6541
tp6542
Rp6543
sVMinamiawaji
p6544
g2
(g6
S'\x0c\x00\x00\x00'
p6545
tp6546
Rp6547
sVNamegata
p6548
g2
(g6
S'\x0c\x00\x00\x00'
p6549
tp6550
Rp6551
sVImabari
p6552
g2
(g6
S'\x04\x00\x00\x00'
p6553
tp6554
Rp6555
sVOkinoshima
p6556
g2
(g6
S'\x11\x00\x00\x00'
p6557
tp6558
Rp6559
sVTait\u014d
p6560
g2
(g6
S'\x0b\x00\x00\x00'
p6561
tp6562
Rp6563
sVAichi
p6564
g2
(g6
S'\n\x00\x00\x00'
p6565
tp6566
Rp6567
sVTamamura
p6568
g2
(g6
S'\x0e\x00\x00\x00'
p6569
tp6570
Rp6571
sVShimabara
p6572
g2
(g6
S'\x12\x00\x00\x00'
p6573
tp6574
Rp6575
sVGose
p6576
g2
(g6
S'\x0e\x00\x00\x00'
p6577
tp6578
Rp6579
sVIkuno
p6580
g2
(g6
S'\x0f\x00\x00\x00'
p6581
tp6582
Rp6583
sVKazuno
p6584
g2
(g6
S'\x08\x00\x00\x00'
p6585
tp6586
Rp6587
sVGinowan
p6588
g2
(g6
S'\x0b\x00\x00\x00'
p6589
tp6590
Rp6591
sVShimane
p6592
g2
(g6
S'\x03\x00\x00\x00'
p6593
tp6594
Rp6595
sVKamijima
p6596
g2
(g6
S'\x06\x00\x00\x00'
p6597
tp6598
Rp6599
sVKumamoto
p6600
g2
(g6
S'\r\x00\x00\x00'
p6601
tp6602
Rp6603
sVNukata
p6604
g2
(g6
S'\n\x00\x00\x00'
p6605
tp6606
Rp6607
sVTen'ei
p6608
g2
(g6
S'\x00\x00\x00\x00'
p6609
tp6610
Rp6611
sVNatori
p6612
g2
(g6
S'\r\x00\x00\x00'
p6613
tp6614
Rp6615
sVS\u014dbetsu
p6616
g2
(g6
S'\x0b\x00\x00\x00'
p6617
tp6618
Rp6619
sVNakasatsunai
p6620
g2
(g6
S'\x00\x00\x00\x00'
p6621
tp6622
Rp6623
sVKuwana
p6624
g2
(g6
S'\x06\x00\x00\x00'
p6625
tp6626
Rp6627
sVSh\u014d\u014d
p6628
g2
(g6
S'\x06\x00\x00\x00'
p6629
tp6630
Rp6631
sVShibata
p6632
g2
(g6
S'\x08\x00\x00\x00'
p6633
tp6634
Rp6635
sVNagatoro
p6636
g2
(g6
S'\x11\x00\x00\x00'
p6637
tp6638
Rp6639
sVHakodate
p6640
g2
(g6
S'\x0c\x00\x00\x00'
p6641
tp6642
Rp6643
sVIsesaki
p6644
g2
(g6
S'\x0e\x00\x00\x00'
p6645
tp6646
Rp6647
sV\u014ckuma
p6648
g2
(g6
S'\x13\x00\x00\x00'
p6649
tp6650
Rp6651
sVYoshioka
p6652
g2
(g6
S'\x10\x00\x00\x00'
p6653
tp6654
Rp6655
sVKaga
p6656
g2
(g6
S'\x03\x00\x00\x00'
p6657
tp6658
Rp6659
sVShizukuishi
p6660
g2
(g6
S'\x0e\x00\x00\x00'
p6661
tp6662
Rp6663
sVMinami
p6664
g2
(g6
S'\r\x00\x00\x00'
p6665
tp6666
Rp6667
sVYoshitomi
p6668
g2
(g6
S'\x06\x00\x00\x00'
p6669
tp6670
Rp6671
sVYokote
p6672
g2
(g6
S'\x11\x00\x00\x00'
p6673
tp6674
Rp6675
sVMutsu
p6676
g2
(g6
S'\x10\x00\x00\x00'
p6677
tp6678
Rp6679
sVHakui
p6680
g2
(g6
S'\r\x00\x00\x00'
p6681
tp6682
Rp6683
sVSang\u014d
p6684
g2
(g6
S'\x10\x00\x00\x00'
p6685
tp6686
Rp6687
sVNarusawa
p6688
g2
(g6
S'\x13\x00\x00\x00'
p6689
tp6690
Rp6691
sVShintotsukawa
p6692
g2
(g6
S'\x12\x00\x00\x00'
p6693
tp6694
Rp6695
sVNaraha
p6696
g2
(g6
S'\x01\x00\x00\x00'
p6697
tp6698
Rp6699
sVHiroo
p6700
g2
(g6
S'\x00\x00\x00\x00'
p6701
tp6702
Rp6703
sVIkeda
p6704
g2
(g6
S'\x01\x00\x00\x00'
p6705
tp6706
Rp6707
sVHigashi\u014dsaka
p6708
g2
(g6
S'\x11\x00\x00\x00'
p6709
tp6710
Rp6711
sVKitadait\u014d
p6712
g2
(g6
S'\x10\x00\x00\x00'
p6713
tp6714
Rp6715
sVKuji
p6716
g2
(g6
S'\x07\x00\x00\x00'
p6717
tp6718
Rp6719
sVKatsuta
p6720
g2
(g6
S'\x0e\x00\x00\x00'
p6721
tp6722
Rp6723
sVNakatonbetsu
p6724
g2
(g6
S'\t\x00\x00\x00'
p6725
tp6726
Rp6727
sVWakkanai
p6728
g2
(g6
S'\t\x00\x00\x00'
p6729
tp6730
Rp6731
sVMuroran
p6732
g2
(g6
S'\x05\x00\x00\x00'
p6733
tp6734
Rp6735
sVShimoichi
p6736
g2
(g6
S'\x01\x00\x00\x00'
p6737
tp6738
Rp6739
sVNakadomari
p6740
g2
(g6
S'\x05\x00\x00\x00'
p6741
tp6742
Rp6743
sV\u014cgata
p6744
g2
(g6
S'\x10\x00\x00\x00'
p6745
tp6746
Rp6747
sVYahaba
p6748
g2
(g6
S'\x08\x00\x00\x00'
p6749
tp6750
Rp6751
sVShiraoka
p6752
g2
(g6
S'\x00\x00\x00\x00'
p6753
tp6754
Rp6755
sVKitasaku
p6756
g2
(g6
S'\x0b\x00\x00\x00'
p6757
tp6758
Rp6759
sVCh\u014dshi
p6760
g2
(g6
S'\x13\x00\x00\x00'
p6761
tp6762
Rp6763
sVTakashima
p6764
g2
(g6
S'\x01\x00\x00\x00'
p6765
tp6766
Rp6767
sVSh\u014dbara
p6768
g2
(g6
S'\x06\x00\x00\x00'
p6769
tp6770
Rp6771
sVKushimoto
p6772
g2
(g6
S'\x08\x00\x00\x00'
p6773
tp6774
Rp6775
sVSuginami
p6776
g2
(g6
S'\x0f\x00\x00\x00'
p6777
tp6778
Rp6779
sVAshiya
p6780
g2
(g6
S'\x11\x00\x00\x00'
p6781
tp6782
Rp6783
sVEhime
p6784
g2
(g6
S'\x02\x00\x00\x00'
p6785
tp6786
Rp6787
sVYokosuka
p6788
g2
(g6
S'\x13\x00\x00\x00'
p6789
tp6790
Rp6791
sVKamitonda
p6792
g2
(g6
S'\n\x00\x00\x00'
p6793
tp6794
Rp6795
sVShinshiro
p6796
g2
(g6
S'\x0f\x00\x00\x00'
p6797
tp6798
Rp6799
sVYaeyama
p6800
g2
(g6
S'\t\x00\x00\x00'
p6801
tp6802
Rp6803
sVKy\u014dtanabe
p6804
g2
(g6
S'\x07\x00\x00\x00'
p6805
tp6806
Rp6807
sVYamanouchi
p6808
g2
(g6
S'\x08\x00\x00\x00'
p6809
tp6810
Rp6811
sVNachikatsuura
p6812
g2
(g6
S'\x03\x00\x00\x00'
p6813
tp6814
Rp6815
sVTomika
p6816
g2
(g6
S'\r\x00\x00\x00'
p6817
tp6818
Rp6819
sVMugi
p6820
g2
(g6
S'\x05\x00\x00\x00'
p6821
tp6822
Rp6823
sVMinamisanriku
p6824
g2
(g6
S'\x07\x00\x00\x00'
p6825
tp6826
Rp6827
sVMasaki
p6828
g2
(g6
S'\x0f\x00\x00\x00'
p6829
tp6830
Rp6831
sVShimizu
p6832
g2
(g6
S'\r\x00\x00\x00'
p6833
tp6834
Rp6835
sVSakaide
p6836
g2
(g6
S'\x0e\x00\x00\x00'
p6837
tp6838
Rp6839
sVDait\u014d
p6840
g2
(g6
S'\x0e\x00\x00\x00'
p6841
tp6842
Rp6843
sV\u014cwani
p6844
g2
(g6
S'\x00\x00\x00\x00'
p6845
tp6846
Rp6847
sVMinamiuonuma
p6848
g2
(g6
S'\x0e\x00\x00\x00'
p6849
tp6850
Rp6851
sVNishinomiya
p6852
g2
(g6
S'\x05\x00\x00\x00'
p6853
tp6854
Rp6855
sVKawamata
p6856
g2
(g6
S'\x07\x00\x00\x00'
p6857
tp6858
Rp6859
sVNanmoku
p6860
g2
(g6
S'\x12\x00\x00\x00'
p6861
tp6862
Rp6863
sVKinokawa
p6864
g2
(g6
S'\x07\x00\x00\x00'
p6865
tp6866
Rp6867
sVMy\u014dk\u014d
p6868
g2
(g6
S'\x12\x00\x00\x00'
p6869
tp6870
Rp6871
sVZa\u014d
p6872
g2
(g6
S'\x0c\x00\x00\x00'
p6873
tp6874
Rp6875
sVJ\u014dy\u014d
p6876
g2
(g6
S'\x01\x00\x00\x00'
p6877
tp6878
Rp6879
sVKashiwara
p6880
g2
(g6
S'\n\x00\x00\x00'
p6881
tp6882
Rp6883
sVTomamae
p6884
g2
(g6
S'\x01\x00\x00\x00'
p6885
tp6886
Rp6887
sVH\u014dki
p6888
g2
(g6
S'\x0f\x00\x00\x00'
p6889
tp6890
Rp6891
sVNishiuwa
p6892
g2
(g6
S'\x07\x00\x00\x00'
p6893
tp6894
Rp6895
sVKijimadaira
p6896
g2
(g6
S'\x11\x00\x00\x00'
p6897
tp6898
Rp6899
sVT\u014don
p6900
g2
(g6
S'\x13\x00\x00\x00'
p6901
tp6902
Rp6903
sVYokkaichi
p6904
g2
(g6
S'\x04\x00\x00\x00'
p6905
tp6906
Rp6907
sVAmami
p6908
g2
(g6
S'\x08\x00\x00\x00'
p6909
tp6910
Rp6911
sVKashima
p6912
g2
(g6
S'\x0b\x00\x00\x00'
p6913
tp6914
Rp6915
sVKainan
p6916
g2
(g6
S'\n\x00\x00\x00'
p6917
tp6918
Rp6919
sVUruma
p6920
g2
(g6
S'\x05\x00\x00\x00'
p6921
tp6922
Rp6923
sVTsurugashima
p6924
g2
(g6
S'\x11\x00\x00\x00'
p6925
tp6926
Rp6927
sVSapporo
p6928
g2
(g6
S'\x08\x00\x00\x00'
p6929
tp6930
Rp6931
sVS\u014dka
p6932
g2
(g6
S'\t\x00\x00\x00'
p6933
tp6934
Rp6935
sVKitauwa
p6936
g2
(g6
S'\x13\x00\x00\x00'
p6937
tp6938
Rp6939
sVTamura
p6940
g2
(g6
S'\x07\x00\x00\x00'
p6941
tp6942
Rp6943
sVYoshimi
p6944
g2
(g6
S'\x0e\x00\x00\x00'
p6945
tp6946
Rp6947
sVMikawa
p6948
g2
(g6
S'\x02\x00\x00\x00'
p6949
tp6950
Rp6951
sVYasu
p6952
g2
(g6
S'\x01\x00\x00\x00'
p6953
tp6954
Rp6955
sVMiyakojima
p6956
g2
(g6
S'\x13\x00\x00\x00'
p6957
tp6958
Rp6959
sVFuwa
p6960
g2
(g6
S'\x07\x00\x00\x00'
p6961
tp6962
Rp6963
sVKamiyama
p6964
g2
(g6
S'\x04\x00\x00\x00'
p6965
tp6966
Rp6967
sVYachiyo
p6968
g2
(g6
S'\x07\x00\x00\x00'
p6969
tp6970
Rp6971
sVHimeshima
p6972
g2
(g6
S'\x01\x00\x00\x00'
p6973
tp6974
Rp6975
sVKashihara
p6976
g2
(g6
S'\x07\x00\x00\x00'
p6977
tp6978
Rp6979
sVYoichi
p6980
g2
(g6
S'\x0b\x00\x00\x00'
p6981
tp6982
Rp6983
sVIchinoseki
p6984
g2
(g6
S'\x06\x00\x00\x00'
p6985
tp6986
Rp6987
sVFujisawa
p6988
g2
(g6
S'\x12\x00\x00\x00'
p6989
tp6990
Rp6991
sVNerima
p6992
g2
(g6
S'\x02\x00\x00\x00'
p6993
tp6994
Rp6995
sVTomiya
p6996
g2
(g6
S'\n\x00\x00\x00'
p6997
tp6998
Rp6999
sV\u014cfunato
p7000
g2
(g6
S'\x05\x00\x00\x00'
p7001
tp7002
Rp7003
sVNinomiya
p7004
g2
(g6
S'\x13\x00\x00\x00'
p7005
tp7006
Rp7007
sVKunohe
p7008
g2
(g6
S'\r\x00\x00\x00'
p7009
tp7010
Rp7011
sVYaizu
p7012
g2
(g6
S'\x11\x00\x00\x00'
p7013
tp7014
Rp7015
sVMatsuzaki
p7016
g2
(g6
S'\x03\x00\x00\x00'
p7017
tp7018
Rp7019
sVHokuto
p7020
g2
(g6
S'\t\x00\x00\x00'
p7021
tp7022
Rp7023
sVIwatsuki
p7024
g2
(g6
S'\x03\x00\x00\x00'
p7025
tp7026
Rp7027
sVNishiyatsushiro
p7028
g2
(g6
S'\x11\x00\x00\x00'
p7029
tp7030
Rp7031
sVKita
p7032
g2
(g6
S'\t\x00\x00\x00'
p7033
tp7034
Rp7035
sVNoshiro
p7036
g2
(g6
S'\x07\x00\x00\x00'
p7037
tp7038
Rp7039
sVTaketomi
p7040
g2
(g6
S'\x04\x00\x00\x00'
p7041
tp7042
Rp7043
sVWakasa
p7044
g2
(g6
S'\t\x00\x00\x00'
p7045
tp7046
Rp7047
sVMy\u014dd\u014d
p7048
g2
(g6
S'\x06\x00\x00\x00'
p7049
tp7050
Rp7051
sVSakaiminato
p7052
g2
(g6
S'\x00\x00\x00\x00'
p7053
tp7054
Rp7055
sVKishiwada
p7056
g2
(g6
S'\n\x00\x00\x00'
p7057
tp7058
Rp7059
sVTatsuno
p7060
g2
(g6
S'\t\x00\x00\x00'
p7061
tp7062
Rp7063
sVNago
p7064
g2
(g6
S'\x0c\x00\x00\x00'
p7065
tp7066
Rp7067
sVWakayama
p7068
g2
(g6
S'\x0e\x00\x00\x00'
p7069
tp7070
Rp7071
sVKaminoseki
p7072
g2
(g6
S'\t\x00\x00\x00'
p7073
tp7074
Rp7075
sVNaganuma
p7076
g2
(g6
S'\x03\x00\x00\x00'
p7077
tp7078
Rp7079
sVBihoro
p7080
g2
(g6
S'\t\x00\x00\x00'
p7081
tp7082
Rp7083
sVSue
p7084
g2
(g6
S'\x10\x00\x00\x00'
p7085
tp7086
Rp7087
sVKodama
p7088
g2
(g6
S'\x00\x00\x00\x00'
p7089
tp7090
Rp7091
sVKuzumaki
p7092
g2
(g6
S'\t\x00\x00\x00'
p7093
tp7094
Rp7095
sVKaho
p7096
g2
(g6
S'\x08\x00\x00\x00'
p7097
tp7098
Rp7099
sVRanzan
p7100
g2
(g6
S'\x0c\x00\x00\x00'
p7101
tp7102
Rp7103
sVInagawa
p7104
g2
(g6
S'\x0c\x00\x00\x00'
p7105
tp7106
Rp7107
sVKesen
p7108
g2
(g6
S'\x04\x00\x00\x00'
p7109
tp7110
Rp7111
sVShimotsuga
p7112
g2
(g6
S'\x10\x00\x00\x00'
p7113
tp7114
Rp7115
sVSumiyoshi
p7116
g2
(g6
S'\x0e\x00\x00\x00'
p7117
tp7118
Rp7119
sVMiki
p7120
g2
(g6
S'\x13\x00\x00\x00'
p7121
tp7122
Rp7123
sVKirishima
p7124
g2
(g6
S'\x12\x00\x00\x00'
p7125
tp7126
Rp7127
sVHamura
p7128
g2
(g6
S'\n\x00\x00\x00'
p7129
tp7130
Rp7131
sVTsunagi
p7132
g2
(g6
S'\x0f\x00\x00\x00'
p7133
tp7134
Rp7135
sVYurihama
p7136
g2
(g6
S'\x0c\x00\x00\x00'
p7137
tp7138
Rp7139
sVTateshina
p7140
g2
(g6
S'\r\x00\x00\x00'
p7141
tp7142
Rp7143
sVYoshino
p7144
g2
(g6
S'\x0e\x00\x00\x00'
p7145
tp7146
Rp7147
sVKashiba
p7148
g2
(g6
S'\x13\x00\x00\x00'
p7149
tp7150
Rp7151
sVFujitsu
p7152
g2
(g6
S'\x10\x00\x00\x00'
p7153
tp7154
Rp7155
sVShiogama
p7156
g2
(g6
S'\x13\x00\x00\x00'
p7157
tp7158
Rp7159
sVKawaminami
p7160
g2
(g6
S'\x0b\x00\x00\x00'
p7161
tp7162
Rp7163
sVYasugi
p7164
g2
(g6
S'\x12\x00\x00\x00'
p7165
tp7166
Rp7167
sV\u014cdate
p7168
g2
(g6
S'\x03\x00\x00\x00'
p7169
tp7170
Rp7171
sVKitami
p7172
g2
(g6
S'\x0e\x00\x00\x00'
p7173
tp7174
Rp7175
sVShirahama
p7176
g2
(g6
S'\x02\x00\x00\x00'
p7177
tp7178
Rp7179
sVMinamikoma
p7180
g2
(g6
S'\r\x00\x00\x00'
p7181
tp7182
Rp7183
sVAgeo
p7184
g2
(g6
S'\x10\x00\x00\x00'
p7185
tp7186
Rp7187
sVKihoku
p7188
g2
(g6
S'\n\x00\x00\x00'
p7189
tp7190
Rp7191
sVKamikatsu
p7192
g2
(g6
S'\x01\x00\x00\x00'
p7193
tp7194
Rp7195
sVYaita
p7196
g2
(g6
S'\n\x00\x00\x00'
p7197
tp7198
Rp7199
sVYosa
p7200
g2
(g6
S'\x03\x00\x00\x00'
p7201
tp7202
Rp7203
sVSamukawa
p7204
g2
(g6
S'\x06\x00\x00\x00'
p7205
tp7206
Rp7207
sVInakadate
p7208
g2
(g6
S'\x02\x00\x00\x00'
p7209
tp7210
Rp7211
sVMatsumae
p7212
g2
(g6
S'\x02\x00\x00\x00'
p7213
tp7214
Rp7215
sVIwanuma
p7216
g2
(g6
S'\x12\x00\x00\x00'
p7217
tp7218
Rp7219
sVTakarazuka
p7220
g2
(g6
S'\x0c\x00\x00\x00'
p7221
tp7222
Rp7223
sVShinagawa
p7224
g2
(g6
S'\x06\x00\x00\x00'
p7225
tp7226
Rp7227
sVChiry\u016b
p7228
g2
(g6
S'\x01\x00\x00\x00'
p7229
tp7230
Rp7231
sVNagiso
p7232
g2
(g6
S'\x0c\x00\x00\x00'
p7233
tp7234
Rp7235
sVNiikappu
p7236
g2
(g6
S'\x10\x00\x00\x00'
p7237
tp7238
Rp7239
sVNakamura
p7240
g2
(g6
S'\x04\x00\x00\x00'
p7241
tp7242
Rp7243
sVAmi
p7244
g2
(g6
S'\x02\x00\x00\x00'
p7245
tp7246
Rp7247
sVKashiwazaki
p7248
g2
(g6
S'\x00\x00\x00\x00'
p7249
tp7250
Rp7251
sVAma
p7252
g2
(g6
S'\x06\x00\x00\x00'
p7253
tp7254
Rp7255
sVChizu
p7256
g2
(g6
S'\r\x00\x00\x00'
p7257
tp7258
Rp7259
sVSuzu
p7260
g2
(g6
S'\x0e\x00\x00\x00'
p7261
tp7262
Rp7263
sVGinoza
p7264
g2
(g6
S'\t\x00\x00\x00'
p7265
tp7266
Rp7267
sVYamashina
p7268
g2
(g6
S'\x13\x00\x00\x00'
p7269
tp7270
Rp7271
sVHioki
p7272
g2
(g6
S'\t\x00\x00\x00'
p7273
tp7274
Rp7275
sVShint\u014d
p7276
g2
(g6
S'\n\x00\x00\x00'
p7277
tp7278
Rp7279
sVAtsubetsu
p7280
g2
(g6
S'\x05\x00\x00\x00'
p7281
tp7282
Rp7283
sVAsakura
p7284
g2
(g6
S'\x02\x00\x00\x00'
p7285
tp7286
Rp7287
sVMatsubara
p7288
g2
(g6
S'\r\x00\x00\x00'
p7289
tp7290
Rp7291
sVShikaoi
p7292
g2
(g6
S'\x01\x00\x00\x00'
p7293
tp7294
Rp7295
sVHigashi\u014dmi
p7296
g2
(g6
S'\x01\x00\x00\x00'
p7297
tp7298
Rp7299
sVNankoku
p7300
g2
(g6
S'\x12\x00\x00\x00'
p7301
tp7302
Rp7303
sVTowada
p7304
g2
(g6
S'\x0c\x00\x00\x00'
p7305
tp7306
Rp7307
sVY\u014dr\u014d
p7308
g2
(g6
S'\x05\x00\x00\x00'
p7309
tp7310
Rp7311
sVTenpaku
p7312
g2
(g6
S'\x01\x00\x00\x00'
p7313
tp7314
Rp7315
sVKuki
p7316
g2
(g6
S'\x05\x00\x00\x00'
p7317
tp7318
Rp7319
sVKurashiki
p7320
g2
(g6
S'\x11\x00\x00\x00'
p7321
tp7322
Rp7323
sVUrahoro
p7324
g2
(g6
S'\x0e\x00\x00\x00'
p7325
tp7326
Rp7327
sVNishiizu
p7328
g2
(g6
S'\x05\x00\x00\x00'
p7329
tp7330
Rp7331
sVMatsuno
p7332
g2
(g6
S'\x03\x00\x00\x00'
p7333
tp7334
Rp7335
sVTsuno
p7336
g2
(g6
S'\x0e\x00\x00\x00'
p7337
tp7338
Rp7339
sVKurokawa
p7340
g2
(g6
S'\t\x00\x00\x00'
p7341
tp7342
Rp7343
sVT\u014dno
p7344
g2
(g6
S'\x10\x00\x00\x00'
p7345
tp7346
Rp7347
sVWakaba
p7348
g2
(g6
S'\x03\x00\x00\x00'
p7349
tp7350
Rp7351
sVNishikawa
p7352
g2
(g6
S'\x08\x00\x00\x00'
p7353
tp7354
Rp7355
sVSu\u014d\u014dshima
p7356
g2
(g6
S'\x07\x00\x00\x00'
p7357
tp7358
Rp7359
sVFuji
p7360
g2
(g6
S'\x11\x00\x00\x00'
p7361
tp7362
Rp7363
sVMizukami
p7364
g2
(g6
S'\x04\x00\x00\x00'
p7365
tp7366
Rp7367
sVFussa
p7368
g2
(g6
S'\x0b\x00\x00\x00'
p7369
tp7370
Rp7371
sVS\u014draku
p7372
g2
(g6
S'\x10\x00\x00\x00'
p7373
tp7374
Rp7375
sVKomatsu
p7376
g2
(g6
S'\x05\x00\x00\x00'
p7377
tp7378
Rp7379
sVIkoma
p7380
g2
(g6
S'\x0b\x00\x00\x00'
p7381
tp7382
Rp7383
sVKurate
p7384
g2
(g6
S'\x0b\x00\x00\x00'
p7385
tp7386
Rp7387
sVSeya
p7388
g2
(g6
S'\x11\x00\x00\x00'
p7389
tp7390
Rp7391
sVShimotakai
p7392
g2
(g6
S'\x06\x00\x00\x00'
p7393
tp7394
Rp7395
sV\u014csakasayama
p7396
g2
(g6
S'\x0f\x00\x00\x00'
p7397
tp7398
Rp7399
sVTachikawa
p7400
g2
(g6
S'\x04\x00\x00\x00'
p7401
tp7402
Rp7403
sVHigashikagura
p7404
g2
(g6
S'\x04\x00\x00\x00'
p7405
tp7406
Rp7407
sVMatsusaka
p7408
g2
(g6
S'\x13\x00\x00\x00'
p7409
tp7410
Rp7411
sVKikuy\u014d
p7412
g2
(g6
S'\x12\x00\x00\x00'
p7413
tp7414
Rp7415
sVKomoro
p7416
g2
(g6
S'\n\x00\x00\x00'
p7417
tp7418
Rp7419
sVMinamisatsuma
p7420
g2
(g6
S'\r\x00\x00\x00'
p7421
tp7422
Rp7423
s.